
vm.elf:     file format elf32-avr

Sections:
Idx Name          Size      VMA       LMA       File off  Algn
  0 .text         000050bc  00000000  00000000  00000074  2**1
                  CONTENTS, ALLOC, LOAD, READONLY, CODE
  1 .data         00000000  00802000  00802000  00005130  2**0
                  CONTENTS, ALLOC, LOAD, DATA
  2 .bss          00007318  00802000  00802000  00005130  2**0
                  ALLOC
  3 .comment      00000030  00000000  00000000  00005130  2**0
                  CONTENTS, READONLY
  4 .note.gnu.avr.deviceinfo 00000040  00000000  00000000  00005160  2**2
                  CONTENTS, READONLY
  5 .debug_aranges 00000100  00000000  00000000  000051a0  2**0
                  CONTENTS, READONLY, DEBUGGING
  6 .debug_info   00002044  00000000  00000000  000052a0  2**0
                  CONTENTS, READONLY, DEBUGGING
  7 .debug_abbrev 0000036f  00000000  00000000  000072e4  2**0
                  CONTENTS, READONLY, DEBUGGING
  8 .debug_line   000022f7  00000000  00000000  00007653  2**0
                  CONTENTS, READONLY, DEBUGGING
  9 .debug_frame  000003c4  00000000  00000000  0000994c  2**2
                  CONTENTS, READONLY, DEBUGGING
 10 .debug_str    000004d0  00000000  00000000  00009d10  2**0
                  CONTENTS, READONLY, DEBUGGING
 11 .debug_loc    00005067  00000000  00000000  0000a1e0  2**0
                  CONTENTS, READONLY, DEBUGGING
 12 .debug_ranges 00000528  00000000  00000000  0000f247  2**0
                  CONTENTS, READONLY, DEBUGGING

Disassembly of section .text:

00000000 <__vectors>:
       0:	0c 94 80 02 	jmp	0x500	; 0x500 <__ctors_end>
       4:	0c 94 a1 02 	jmp	0x542	; 0x542 <__bad_interrupt>
       8:	0c 94 a1 02 	jmp	0x542	; 0x542 <__bad_interrupt>
       c:	0c 94 a1 02 	jmp	0x542	; 0x542 <__bad_interrupt>
      10:	0c 94 a1 02 	jmp	0x542	; 0x542 <__bad_interrupt>
      14:	0c 94 a1 02 	jmp	0x542	; 0x542 <__bad_interrupt>
      18:	0c 94 a1 02 	jmp	0x542	; 0x542 <__bad_interrupt>
      1c:	0c 94 a1 02 	jmp	0x542	; 0x542 <__bad_interrupt>
      20:	0c 94 a1 02 	jmp	0x542	; 0x542 <__bad_interrupt>
      24:	0c 94 a1 02 	jmp	0x542	; 0x542 <__bad_interrupt>
      28:	0c 94 a1 02 	jmp	0x542	; 0x542 <__bad_interrupt>
      2c:	0c 94 a1 02 	jmp	0x542	; 0x542 <__bad_interrupt>
      30:	0c 94 a1 02 	jmp	0x542	; 0x542 <__bad_interrupt>
      34:	0c 94 a1 02 	jmp	0x542	; 0x542 <__bad_interrupt>
      38:	0c 94 a1 02 	jmp	0x542	; 0x542 <__bad_interrupt>
      3c:	0c 94 a1 02 	jmp	0x542	; 0x542 <__bad_interrupt>
      40:	0c 94 a1 02 	jmp	0x542	; 0x542 <__bad_interrupt>
      44:	0c 94 a1 02 	jmp	0x542	; 0x542 <__bad_interrupt>
      48:	0c 94 a1 02 	jmp	0x542	; 0x542 <__bad_interrupt>
      4c:	0c 94 a1 02 	jmp	0x542	; 0x542 <__bad_interrupt>
      50:	0c 94 a1 02 	jmp	0x542	; 0x542 <__bad_interrupt>
      54:	0c 94 a1 02 	jmp	0x542	; 0x542 <__bad_interrupt>
      58:	0c 94 a1 02 	jmp	0x542	; 0x542 <__bad_interrupt>
      5c:	0c 94 a1 02 	jmp	0x542	; 0x542 <__bad_interrupt>
      60:	0c 94 a1 02 	jmp	0x542	; 0x542 <__bad_interrupt>
      64:	0c 94 a1 02 	jmp	0x542	; 0x542 <__bad_interrupt>
      68:	0c 94 a1 02 	jmp	0x542	; 0x542 <__bad_interrupt>
      6c:	0c 94 a1 02 	jmp	0x542	; 0x542 <__bad_interrupt>
      70:	0c 94 a1 02 	jmp	0x542	; 0x542 <__bad_interrupt>
      74:	0c 94 a1 02 	jmp	0x542	; 0x542 <__bad_interrupt>
      78:	0c 94 a1 02 	jmp	0x542	; 0x542 <__bad_interrupt>
      7c:	0c 94 a1 02 	jmp	0x542	; 0x542 <__bad_interrupt>
      80:	0c 94 a1 02 	jmp	0x542	; 0x542 <__bad_interrupt>
      84:	0c 94 a1 02 	jmp	0x542	; 0x542 <__bad_interrupt>
      88:	0c 94 a1 02 	jmp	0x542	; 0x542 <__bad_interrupt>
      8c:	0c 94 a1 02 	jmp	0x542	; 0x542 <__bad_interrupt>
      90:	0c 94 a1 02 	jmp	0x542	; 0x542 <__bad_interrupt>
      94:	0c 94 a1 02 	jmp	0x542	; 0x542 <__bad_interrupt>
      98:	0c 94 a1 02 	jmp	0x542	; 0x542 <__bad_interrupt>
      9c:	0c 94 a1 02 	jmp	0x542	; 0x542 <__bad_interrupt>
      a0:	0c 94 a1 02 	jmp	0x542	; 0x542 <__bad_interrupt>
      a4:	0c 94 a1 02 	jmp	0x542	; 0x542 <__bad_interrupt>
      a8:	0c 94 a1 02 	jmp	0x542	; 0x542 <__bad_interrupt>
      ac:	0c 94 a1 02 	jmp	0x542	; 0x542 <__bad_interrupt>
      b0:	0c 94 a1 02 	jmp	0x542	; 0x542 <__bad_interrupt>
      b4:	0c 94 a1 02 	jmp	0x542	; 0x542 <__bad_interrupt>
      b8:	0c 94 a1 02 	jmp	0x542	; 0x542 <__bad_interrupt>
      bc:	0c 94 a1 02 	jmp	0x542	; 0x542 <__bad_interrupt>
      c0:	0c 94 a1 02 	jmp	0x542	; 0x542 <__bad_interrupt>
      c4:	0c 94 a1 02 	jmp	0x542	; 0x542 <__bad_interrupt>
      c8:	0c 94 a1 02 	jmp	0x542	; 0x542 <__bad_interrupt>
      cc:	0c 94 a1 02 	jmp	0x542	; 0x542 <__bad_interrupt>
      d0:	0c 94 a1 02 	jmp	0x542	; 0x542 <__bad_interrupt>
      d4:	0c 94 a1 02 	jmp	0x542	; 0x542 <__bad_interrupt>
      d8:	0c 94 a1 02 	jmp	0x542	; 0x542 <__bad_interrupt>
      dc:	0c 94 a1 02 	jmp	0x542	; 0x542 <__bad_interrupt>
      e0:	0c 94 a1 02 	jmp	0x542	; 0x542 <__bad_interrupt>
      e4:	0c 94 a1 02 	jmp	0x542	; 0x542 <__bad_interrupt>
      e8:	0c 94 a1 02 	jmp	0x542	; 0x542 <__bad_interrupt>
      ec:	0c 94 a1 02 	jmp	0x542	; 0x542 <__bad_interrupt>
      f0:	0c 94 a1 02 	jmp	0x542	; 0x542 <__bad_interrupt>
      f4:	0c 94 a1 02 	jmp	0x542	; 0x542 <__bad_interrupt>
      f8:	0c 94 a1 02 	jmp	0x542	; 0x542 <__bad_interrupt>
      fc:	0c 94 a1 02 	jmp	0x542	; 0x542 <__bad_interrupt>
     100:	0c 94 a1 02 	jmp	0x542	; 0x542 <__bad_interrupt>
     104:	0c 94 a1 02 	jmp	0x542	; 0x542 <__bad_interrupt>
     108:	0c 94 a1 02 	jmp	0x542	; 0x542 <__bad_interrupt>
     10c:	0c 94 a1 02 	jmp	0x542	; 0x542 <__bad_interrupt>
     110:	0c 94 a1 02 	jmp	0x542	; 0x542 <__bad_interrupt>
     114:	0c 94 a1 02 	jmp	0x542	; 0x542 <__bad_interrupt>
     118:	0c 94 a1 02 	jmp	0x542	; 0x542 <__bad_interrupt>
     11c:	0c 94 a1 02 	jmp	0x542	; 0x542 <__bad_interrupt>
     120:	0c 94 a1 02 	jmp	0x542	; 0x542 <__bad_interrupt>
     124:	0c 94 a1 02 	jmp	0x542	; 0x542 <__bad_interrupt>
     128:	0c 94 a1 02 	jmp	0x542	; 0x542 <__bad_interrupt>
     12c:	0c 94 a1 02 	jmp	0x542	; 0x542 <__bad_interrupt>
     130:	0c 94 a1 02 	jmp	0x542	; 0x542 <__bad_interrupt>
     134:	0c 94 a1 02 	jmp	0x542	; 0x542 <__bad_interrupt>
     138:	0c 94 a1 02 	jmp	0x542	; 0x542 <__bad_interrupt>
     13c:	0c 94 a1 02 	jmp	0x542	; 0x542 <__bad_interrupt>
     140:	0c 94 a1 02 	jmp	0x542	; 0x542 <__bad_interrupt>
     144:	0c 94 a1 02 	jmp	0x542	; 0x542 <__bad_interrupt>
     148:	0c 94 a1 02 	jmp	0x542	; 0x542 <__bad_interrupt>
     14c:	0c 94 a1 02 	jmp	0x542	; 0x542 <__bad_interrupt>
     150:	0c 94 a1 02 	jmp	0x542	; 0x542 <__bad_interrupt>
     154:	0c 94 a1 02 	jmp	0x542	; 0x542 <__bad_interrupt>
     158:	0c 94 a1 02 	jmp	0x542	; 0x542 <__bad_interrupt>
     15c:	0c 94 a1 02 	jmp	0x542	; 0x542 <__bad_interrupt>
     160:	0c 94 a1 02 	jmp	0x542	; 0x542 <__bad_interrupt>
     164:	0c 94 a1 02 	jmp	0x542	; 0x542 <__bad_interrupt>
     168:	0c 94 a1 02 	jmp	0x542	; 0x542 <__bad_interrupt>
     16c:	0c 94 a1 02 	jmp	0x542	; 0x542 <__bad_interrupt>
     170:	0c 94 a1 02 	jmp	0x542	; 0x542 <__bad_interrupt>
     174:	0c 94 a1 02 	jmp	0x542	; 0x542 <__bad_interrupt>
     178:	0c 94 a1 02 	jmp	0x542	; 0x542 <__bad_interrupt>
     17c:	0c 94 a1 02 	jmp	0x542	; 0x542 <__bad_interrupt>
     180:	0c 94 a1 02 	jmp	0x542	; 0x542 <__bad_interrupt>
     184:	0c 94 a1 02 	jmp	0x542	; 0x542 <__bad_interrupt>
     188:	0c 94 a1 02 	jmp	0x542	; 0x542 <__bad_interrupt>
     18c:	0c 94 a1 02 	jmp	0x542	; 0x542 <__bad_interrupt>
     190:	0c 94 a1 02 	jmp	0x542	; 0x542 <__bad_interrupt>
     194:	0c 94 a1 02 	jmp	0x542	; 0x542 <__bad_interrupt>
     198:	0c 94 a1 02 	jmp	0x542	; 0x542 <__bad_interrupt>
     19c:	0c 94 a1 02 	jmp	0x542	; 0x542 <__bad_interrupt>
     1a0:	0c 94 a1 02 	jmp	0x542	; 0x542 <__bad_interrupt>
     1a4:	0c 94 a1 02 	jmp	0x542	; 0x542 <__bad_interrupt>
     1a8:	0c 94 a1 02 	jmp	0x542	; 0x542 <__bad_interrupt>
     1ac:	0c 94 a1 02 	jmp	0x542	; 0x542 <__bad_interrupt>
     1b0:	0c 94 a1 02 	jmp	0x542	; 0x542 <__bad_interrupt>
     1b4:	0c 94 a1 02 	jmp	0x542	; 0x542 <__bad_interrupt>
     1b8:	0c 94 a1 02 	jmp	0x542	; 0x542 <__bad_interrupt>
     1bc:	0c 94 a1 02 	jmp	0x542	; 0x542 <__bad_interrupt>
     1c0:	0c 94 a1 02 	jmp	0x542	; 0x542 <__bad_interrupt>
     1c4:	0c 94 a1 02 	jmp	0x542	; 0x542 <__bad_interrupt>
     1c8:	0c 94 a1 02 	jmp	0x542	; 0x542 <__bad_interrupt>
     1cc:	0c 94 a1 02 	jmp	0x542	; 0x542 <__bad_interrupt>
     1d0:	0c 94 a1 02 	jmp	0x542	; 0x542 <__bad_interrupt>
     1d4:	0c 94 a1 02 	jmp	0x542	; 0x542 <__bad_interrupt>
     1d8:	0c 94 a1 02 	jmp	0x542	; 0x542 <__bad_interrupt>
     1dc:	0c 94 a1 02 	jmp	0x542	; 0x542 <__bad_interrupt>
     1e0:	0c 94 a1 02 	jmp	0x542	; 0x542 <__bad_interrupt>
     1e4:	0c 94 a1 02 	jmp	0x542	; 0x542 <__bad_interrupt>
     1e8:	0c 94 a1 02 	jmp	0x542	; 0x542 <__bad_interrupt>
     1ec:	0c 94 a1 02 	jmp	0x542	; 0x542 <__bad_interrupt>
     1f0:	0c 94 a1 02 	jmp	0x542	; 0x542 <__bad_interrupt>
     1f4:	0c 94 a1 02 	jmp	0x542	; 0x542 <__bad_interrupt>
     1f8:	0c 94 a1 02 	jmp	0x542	; 0x542 <__bad_interrupt>
     1fc:	62 0e       	add	r6, r18
     1fe:	4b 0e       	add	r4, r27
     200:	17 0e       	add	r1, r23
     202:	17 0e       	add	r1, r23
     204:	54 0d       	add	r21, r4
     206:	54 0d       	add	r21, r4
     208:	54 0d       	add	r21, r4
     20a:	54 0d       	add	r21, r4
     20c:	c8 0a       	sbc	r12, r24
     20e:	c8 0a       	sbc	r12, r24
     210:	c8 0a       	sbc	r12, r24
     212:	c8 0a       	sbc	r12, r24
     214:	14 0a       	sbc	r1, r20
     216:	14 0a       	sbc	r1, r20
     218:	14 0a       	sbc	r1, r20
     21a:	14 0a       	sbc	r1, r20
     21c:	6a 0e       	add	r6, r26
     21e:	6a 0e       	add	r6, r26
     220:	6a 0e       	add	r6, r26
     222:	6a 0e       	add	r6, r26
     224:	7d 09       	sbc	r23, r13
     226:	7d 09       	sbc	r23, r13
     228:	7d 09       	sbc	r23, r13
     22a:	7d 09       	sbc	r23, r13
     22c:	a8 0c       	add	r10, r8
     22e:	a8 0c       	add	r10, r8
     230:	a8 0c       	add	r10, r8
     232:	a8 0c       	add	r10, r8
     234:	e7 0b       	sbc	r30, r23
     236:	e7 0b       	sbc	r30, r23
     238:	e7 0b       	sbc	r30, r23
     23a:	e7 0b       	sbc	r30, r23
     23c:	29 0f       	add	r18, r25
     23e:	29 0f       	add	r18, r25
     240:	29 0f       	add	r18, r25
     242:	29 0f       	add	r18, r25
     244:	88 0b       	sbc	r24, r24
     246:	88 0b       	sbc	r24, r24
     248:	88 0b       	sbc	r24, r24
     24a:	88 0b       	sbc	r24, r24
     24c:	fa 0e       	add	r15, r26
     24e:	fa 0e       	add	r15, r26
     250:	fa 0e       	add	r15, r26
     252:	fa 0e       	add	r15, r26
     254:	d5 0e       	add	r13, r21
     256:	d5 0e       	add	r13, r21
     258:	d5 0e       	add	r13, r21
     25a:	d5 0e       	add	r13, r21
     25c:	e9 08       	sbc	r14, r9
     25e:	e9 08       	sbc	r14, r9
     260:	e9 08       	sbc	r14, r9
     262:	e9 08       	sbc	r14, r9
     264:	e9 08       	sbc	r14, r9
     266:	e9 08       	sbc	r14, r9
     268:	e9 08       	sbc	r14, r9
     26a:	e9 08       	sbc	r14, r9
     26c:	e9 08       	sbc	r14, r9
     26e:	e9 08       	sbc	r14, r9
     270:	e9 08       	sbc	r14, r9
     272:	e9 08       	sbc	r14, r9
     274:	e9 08       	sbc	r14, r9
     276:	e9 08       	sbc	r14, r9
     278:	e9 08       	sbc	r14, r9
     27a:	e9 08       	sbc	r14, r9
     27c:	48 08       	sbc	r4, r8
     27e:	48 08       	sbc	r4, r8
     280:	48 08       	sbc	r4, r8
     282:	48 08       	sbc	r4, r8
     284:	48 08       	sbc	r4, r8
     286:	48 08       	sbc	r4, r8
     288:	48 08       	sbc	r4, r8
     28a:	48 08       	sbc	r4, r8
     28c:	48 08       	sbc	r4, r8
     28e:	48 08       	sbc	r4, r8
     290:	48 08       	sbc	r4, r8
     292:	48 08       	sbc	r4, r8
     294:	48 08       	sbc	r4, r8
     296:	48 08       	sbc	r4, r8
     298:	48 08       	sbc	r4, r8
     29a:	48 08       	sbc	r4, r8
     29c:	94 11       	cpse	r25, r4
     29e:	94 11       	cpse	r25, r4
     2a0:	94 11       	cpse	r25, r4
     2a2:	94 11       	cpse	r25, r4
     2a4:	94 11       	cpse	r25, r4
     2a6:	94 11       	cpse	r25, r4
     2a8:	94 11       	cpse	r25, r4
     2aa:	94 11       	cpse	r25, r4
     2ac:	94 11       	cpse	r25, r4
     2ae:	94 11       	cpse	r25, r4
     2b0:	94 11       	cpse	r25, r4
     2b2:	94 11       	cpse	r25, r4
     2b4:	94 11       	cpse	r25, r4
     2b6:	94 11       	cpse	r25, r4
     2b8:	94 11       	cpse	r25, r4
     2ba:	94 11       	cpse	r25, r4
     2bc:	56 11       	cpse	r21, r6
     2be:	56 11       	cpse	r21, r6
     2c0:	56 11       	cpse	r21, r6
     2c2:	56 11       	cpse	r21, r6
     2c4:	56 11       	cpse	r21, r6
     2c6:	56 11       	cpse	r21, r6
     2c8:	56 11       	cpse	r21, r6
     2ca:	56 11       	cpse	r21, r6
     2cc:	56 11       	cpse	r21, r6
     2ce:	56 11       	cpse	r21, r6
     2d0:	56 11       	cpse	r21, r6
     2d2:	56 11       	cpse	r21, r6
     2d4:	56 11       	cpse	r21, r6
     2d6:	56 11       	cpse	r21, r6
     2d8:	56 11       	cpse	r21, r6
     2da:	56 11       	cpse	r21, r6
     2dc:	8b 13       	cpse	r24, r27
     2de:	8b 13       	cpse	r24, r27
     2e0:	8b 13       	cpse	r24, r27
     2e2:	8b 13       	cpse	r24, r27
     2e4:	8b 13       	cpse	r24, r27
     2e6:	8b 13       	cpse	r24, r27
     2e8:	8b 13       	cpse	r24, r27
     2ea:	8b 13       	cpse	r24, r27
     2ec:	8b 13       	cpse	r24, r27
     2ee:	8b 13       	cpse	r24, r27
     2f0:	8b 13       	cpse	r24, r27
     2f2:	8b 13       	cpse	r24, r27
     2f4:	8b 13       	cpse	r24, r27
     2f6:	8b 13       	cpse	r24, r27
     2f8:	8b 13       	cpse	r24, r27
     2fa:	8b 13       	cpse	r24, r27
     2fc:	15 11       	cpse	r17, r5
     2fe:	15 11       	cpse	r17, r5
     300:	ad 12       	cpse	r10, r29
     302:	ad 12       	cpse	r10, r29
     304:	5e 12       	cpse	r5, r30
     306:	5e 12       	cpse	r5, r30
     308:	9d 0f       	add	r25, r29
     30a:	9d 0f       	add	r25, r29
     30c:	51 0f       	add	r21, r17
     30e:	51 0f       	add	r21, r17
     310:	61 14       	cp	r6, r1
     312:	61 14       	cp	r6, r1
     314:	5e 12       	cpse	r5, r30
     316:	5e 12       	cpse	r5, r30
     318:	61 14       	cp	r6, r1
     31a:	61 14       	cp	r6, r1
     31c:	25 13       	cpse	r18, r21
     31e:	25 13       	cpse	r18, r21
     320:	5f 10       	cpse	r5, r15
     322:	5f 10       	cpse	r5, r15
     324:	3c 10       	cpse	r3, r12
     326:	3c 10       	cpse	r3, r12
     328:	aa 13       	cpse	r26, r26
     32a:	aa 13       	cpse	r26, r26
     32c:	2e 12       	cpse	r2, r30
     32e:	68 0e       	add	r6, r24
     330:	1a 08       	sbc	r1, r10
     332:	c2 07       	cpc	r28, r18
     334:	f6 06       	cpc	r15, r22
     336:	f6 06       	cpc	r15, r22
     338:	f6 06       	cpc	r15, r22
     33a:	f6 06       	cpc	r15, r22
     33c:	98 06       	cpc	r9, r24
     33e:	98 06       	cpc	r9, r24
     340:	3c 07       	cpc	r19, r28
     342:	3c 07       	cpc	r19, r28
     344:	98 06       	cpc	r9, r24
     346:	98 06       	cpc	r9, r24
     348:	3c 07       	cpc	r19, r28
     34a:	3c 07       	cpc	r19, r28
     34c:	98 06       	cpc	r9, r24
     34e:	98 06       	cpc	r9, r24
     350:	3c 07       	cpc	r19, r28
     352:	3c 07       	cpc	r19, r28
     354:	98 06       	cpc	r9, r24
     356:	98 06       	cpc	r9, r24
     358:	3c 07       	cpc	r19, r28
     35a:	3c 07       	cpc	r19, r28
     35c:	f8 05       	cpc	r31, r8
     35e:	f8 05       	cpc	r31, r8
     360:	f8 05       	cpc	r31, r8
     362:	f8 05       	cpc	r31, r8
     364:	f8 05       	cpc	r31, r8
     366:	f8 05       	cpc	r31, r8
     368:	f8 05       	cpc	r31, r8
     36a:	f8 05       	cpc	r31, r8
     36c:	43 06       	cpc	r4, r19
     36e:	43 06       	cpc	r4, r19
     370:	43 06       	cpc	r4, r19
     372:	43 06       	cpc	r4, r19
     374:	43 06       	cpc	r4, r19
     376:	43 06       	cpc	r4, r19
     378:	43 06       	cpc	r4, r19
     37a:	43 06       	cpc	r4, r19
     37c:	1b 06       	cpc	r1, r27
     37e:	1b 06       	cpc	r1, r27
     380:	1b 06       	cpc	r1, r27
     382:	1b 06       	cpc	r1, r27
     384:	1b 06       	cpc	r1, r27
     386:	1b 06       	cpc	r1, r27
     388:	1b 06       	cpc	r1, r27
     38a:	1b 06       	cpc	r1, r27
     38c:	1b 06       	cpc	r1, r27
     38e:	1b 06       	cpc	r1, r27
     390:	1b 06       	cpc	r1, r27
     392:	1b 06       	cpc	r1, r27
     394:	1b 06       	cpc	r1, r27
     396:	1b 06       	cpc	r1, r27
     398:	1b 06       	cpc	r1, r27
     39a:	1b 06       	cpc	r1, r27
     39c:	99 05       	cpc	r25, r9
     39e:	99 05       	cpc	r25, r9
     3a0:	99 05       	cpc	r25, r9
     3a2:	99 05       	cpc	r25, r9
     3a4:	99 05       	cpc	r25, r9
     3a6:	99 05       	cpc	r25, r9
     3a8:	99 05       	cpc	r25, r9
     3aa:	99 05       	cpc	r25, r9
     3ac:	99 05       	cpc	r25, r9
     3ae:	99 05       	cpc	r25, r9
     3b0:	99 05       	cpc	r25, r9
     3b2:	99 05       	cpc	r25, r9
     3b4:	99 05       	cpc	r25, r9
     3b6:	99 05       	cpc	r25, r9
     3b8:	99 05       	cpc	r25, r9
     3ba:	99 05       	cpc	r25, r9
     3bc:	81 05       	cpc	r24, r1
     3be:	81 05       	cpc	r24, r1
     3c0:	81 05       	cpc	r24, r1
     3c2:	81 05       	cpc	r24, r1
     3c4:	81 05       	cpc	r24, r1
     3c6:	81 05       	cpc	r24, r1
     3c8:	81 05       	cpc	r24, r1
     3ca:	81 05       	cpc	r24, r1
     3cc:	81 05       	cpc	r24, r1
     3ce:	81 05       	cpc	r24, r1
     3d0:	81 05       	cpc	r24, r1
     3d2:	81 05       	cpc	r24, r1
     3d4:	81 05       	cpc	r24, r1
     3d6:	81 05       	cpc	r24, r1
     3d8:	81 05       	cpc	r24, r1
     3da:	81 05       	cpc	r24, r1
     3dc:	54 05       	cpc	r21, r4
     3de:	54 05       	cpc	r21, r4
     3e0:	54 05       	cpc	r21, r4
     3e2:	54 05       	cpc	r21, r4
     3e4:	16 05       	cpc	r17, r6
     3e6:	16 05       	cpc	r17, r6
     3e8:	16 05       	cpc	r17, r6
     3ea:	16 05       	cpc	r17, r6
     3ec:	e7 04       	cpc	r14, r7
     3ee:	e7 04       	cpc	r14, r7
     3f0:	ad 04       	cpc	r10, r13
     3f2:	ad 04       	cpc	r10, r13
     3f4:	48 04       	cpc	r4, r8
     3f6:	48 04       	cpc	r4, r8
     3f8:	51 03       	mulsu	r21, r17
     3fa:	51 03       	mulsu	r21, r17
     3fc:	ed 16       	cp	r14, r29
     3fe:	66 16       	cp	r6, r22
     400:	3c 16       	cp	r3, r28
     402:	e1 15       	cp	r30, r1
     404:	68 0e       	add	r6, r24
     406:	a0 17       	cp	r26, r16
     408:	2e 17       	cp	r18, r30
     40a:	15 18       	sub	r1, r5
     40c:	68 0e       	add	r6, r24
     40e:	68 0e       	add	r6, r24
     410:	84 15       	cp	r24, r4
     412:	68 0e       	add	r6, r24
     414:	44 15       	cp	r20, r4
     416:	44 15       	cp	r20, r4
     418:	df 14       	cp	r13, r15
     41a:	df 14       	cp	r13, r15

0000041c <__trampolines_start>:
     41c:	0c 94 88 0b 	jmp	0x1710	; 0x1710 <fetch+0x1182>
     420:	0c 94 61 14 	jmp	0x28c2	; 0x28c2 <fetch+0x2334>
     424:	0c 94 25 13 	jmp	0x264a	; 0x264a <fetch+0x20bc>
     428:	0c 94 3c 07 	jmp	0xe78	; 0xe78 <fetch+0x8ea>
     42c:	0c 94 94 11 	jmp	0x2328	; 0x2328 <fetch+0x1d9a>
     430:	0c 94 c8 0a 	jmp	0x1590	; 0x1590 <fetch+0x1002>
     434:	0c 94 44 15 	jmp	0x2a88	; 0x2a88 <fetch+0x24fa>
     438:	0c 94 5e 12 	jmp	0x24bc	; 0x24bc <fetch+0x1f2e>
     43c:	0c 94 df 14 	jmp	0x29be	; 0x29be <fetch+0x2430>
     440:	0c 94 2e 17 	jmp	0x2e5c	; 0x2e5c <fetch+0x28ce>
     444:	0c 94 98 06 	jmp	0xd30	; 0xd30 <fetch+0x7a2>
     448:	0c 94 5f 10 	jmp	0x20be	; 0x20be <fetch+0x1b30>
     44c:	0c 94 54 0d 	jmp	0x1aa8	; 0x1aa8 <fetch+0x151a>
     450:	0c 94 1a 08 	jmp	0x1034	; 0x1034 <fetch+0xaa6>
     454:	0c 94 2e 12 	jmp	0x245c	; 0x245c <fetch+0x1ece>
     458:	0c 94 ad 12 	jmp	0x255a	; 0x255a <fetch+0x1fcc>
     45c:	0c 94 ad 04 	jmp	0x95a	; 0x95a <fetch+0x3cc>
     460:	0c 94 e1 15 	jmp	0x2bc2	; 0x2bc2 <fetch+0x2634>
     464:	0c 94 43 06 	jmp	0xc86	; 0xc86 <fetch+0x6f8>
     468:	0c 94 9d 0f 	jmp	0x1f3a	; 0x1f3a <fetch+0x19ac>
     46c:	0c 94 54 05 	jmp	0xaa8	; 0xaa8 <fetch+0x51a>
     470:	0c 94 d5 0e 	jmp	0x1daa	; 0x1daa <fetch+0x181c>
     474:	0c 94 84 15 	jmp	0x2b08	; 0x2b08 <fetch+0x257a>
     478:	0c 94 c2 07 	jmp	0xf84	; 0xf84 <fetch+0x9f6>
     47c:	0c 94 62 0e 	jmp	0x1cc4	; 0x1cc4 <fetch+0x1736>
     480:	0c 94 48 04 	jmp	0x890	; 0x890 <fetch+0x302>
     484:	0c 94 56 11 	jmp	0x22ac	; 0x22ac <fetch+0x1d1e>
     488:	0c 94 f8 05 	jmp	0xbf0	; 0xbf0 <fetch+0x662>
     48c:	0c 94 a0 17 	jmp	0x2f40	; 0x2f40 <fetch+0x29b2>
     490:	0c 94 16 05 	jmp	0xa2c	; 0xa2c <fetch+0x49e>
     494:	0c 94 14 0a 	jmp	0x1428	; 0x1428 <fetch+0xe9a>
     498:	0c 94 15 11 	jmp	0x222a	; 0x222a <fetch+0x1c9c>
     49c:	0c 94 ed 16 	jmp	0x2dda	; 0x2dda <fetch+0x284c>
     4a0:	0c 94 4b 0e 	jmp	0x1c96	; 0x1c96 <fetch+0x1708>
     4a4:	0c 94 e9 08 	jmp	0x11d2	; 0x11d2 <fetch+0xc44>
     4a8:	0c 94 f6 06 	jmp	0xdec	; 0xdec <fetch+0x85e>
     4ac:	0c 94 e7 04 	jmp	0x9ce	; 0x9ce <fetch+0x440>
     4b0:	0c 94 99 05 	jmp	0xb32	; 0xb32 <fetch+0x5a4>
     4b4:	0c 94 3c 16 	jmp	0x2c78	; 0x2c78 <fetch+0x26ea>
     4b8:	0c 94 17 0e 	jmp	0x1c2e	; 0x1c2e <fetch+0x16a0>
     4bc:	0c 94 51 03 	jmp	0x6a2	; 0x6a2 <fetch+0x114>
     4c0:	0c 94 48 08 	jmp	0x1090	; 0x1090 <fetch+0xb02>
     4c4:	0c 94 7d 09 	jmp	0x12fa	; 0x12fa <fetch+0xd6c>
     4c8:	0c 94 aa 13 	jmp	0x2754	; 0x2754 <fetch+0x21c6>
     4cc:	0c 94 3c 10 	jmp	0x2078	; 0x2078 <fetch+0x1aea>
     4d0:	0c 94 8b 13 	jmp	0x2716	; 0x2716 <fetch+0x2188>
     4d4:	0c 94 6a 0e 	jmp	0x1cd4	; 0x1cd4 <fetch+0x1746>
     4d8:	0c 94 51 0f 	jmp	0x1ea2	; 0x1ea2 <fetch+0x1914>
     4dc:	0c 94 66 16 	jmp	0x2ccc	; 0x2ccc <fetch+0x273e>
     4e0:	0c 94 e7 0b 	jmp	0x17ce	; 0x17ce <fetch+0x1240>
     4e4:	0c 94 fa 0e 	jmp	0x1df4	; 0x1df4 <fetch+0x1866>
     4e8:	0c 94 1b 06 	jmp	0xc36	; 0xc36 <fetch+0x6a8>
     4ec:	0c 94 29 0f 	jmp	0x1e52	; 0x1e52 <fetch+0x18c4>
     4f0:	0c 94 81 05 	jmp	0xb02	; 0xb02 <fetch+0x574>
     4f4:	0c 94 15 18 	jmp	0x302a	; 0x302a <fetch+0x2a9c>
     4f8:	0c 94 a8 0c 	jmp	0x1950	; 0x1950 <fetch+0x13c2>
     4fc:	0c 94 68 0e 	jmp	0x1cd0	; 0x1cd0 <fetch+0x1742>

00000500 <__ctors_end>:
     500:	11 24       	eor	r1, r1
     502:	1f be       	out	0x3f, r1	; 63
     504:	cf ef       	ldi	r28, 0xFF	; 255
     506:	cd bf       	out	0x3d, r28	; 61
     508:	df e9       	ldi	r29, 0x9F	; 159
     50a:	de bf       	out	0x3e, r29	; 62
     50c:	00 e0       	ldi	r16, 0x00	; 0
     50e:	0c bf       	out	0x3c, r16	; 60

00000510 <__do_clear_bss>:
     510:	23 e9       	ldi	r18, 0x93	; 147
     512:	a0 e0       	ldi	r26, 0x00	; 0
     514:	b0 e2       	ldi	r27, 0x20	; 32
     516:	01 c0       	rjmp	.+2      	; 0x51a <.do_clear_bss_start>

00000518 <.do_clear_bss_loop>:
     518:	1d 92       	st	X+, r1

0000051a <.do_clear_bss_start>:
     51a:	a8 31       	cpi	r26, 0x18	; 24
     51c:	b2 07       	cpc	r27, r18
     51e:	e1 f7       	brne	.-8      	; 0x518 <.do_clear_bss_loop>

00000520 <__do_copy_data>:
     520:	10 e2       	ldi	r17, 0x20	; 32
     522:	a0 e0       	ldi	r26, 0x00	; 0
     524:	b0 e2       	ldi	r27, 0x20	; 32
     526:	ec eb       	ldi	r30, 0xBC	; 188
     528:	f0 e5       	ldi	r31, 0x50	; 80
     52a:	00 e0       	ldi	r16, 0x00	; 0
     52c:	0b bf       	out	0x3b, r16	; 59
     52e:	02 c0       	rjmp	.+4      	; 0x534 <__do_copy_data+0x14>
     530:	07 90       	elpm	r0, Z+
     532:	0d 92       	st	X+, r0
     534:	a0 30       	cpi	r26, 0x00	; 0
     536:	b1 07       	cpc	r27, r17
     538:	d9 f7       	brne	.-10     	; 0x530 <__do_copy_data+0x10>
     53a:	0e 94 fd 27 	call	0x4ffa	; 0x4ffa <main>
     53e:	0c 94 5c 28 	jmp	0x50b8	; 0x50b8 <_exit>

00000542 <__bad_interrupt>:
     542:	0c 94 00 00 	jmp	0	; 0x0 <__vectors>

00000546 <memcpy_PF>:
     546:	6b bf       	out	0x3b, r22	; 59
     548:	fa 01       	movw	r30, r20
     54a:	dc 01       	movw	r26, r24
     54c:	02 c0       	rjmp	.+4      	; 0x552 <memcpy_PF+0xc>
     54e:	07 90       	elpm	r0, Z+
     550:	0d 92       	st	X+, r0
     552:	21 50       	subi	r18, 0x01	; 1
     554:	30 40       	sbci	r19, 0x00	; 0
     556:	d8 f7       	brcc	.-10     	; 0x54e <memcpy_PF+0x8>
     558:	08 95       	ret

0000055a <engineInit>:
	
	else
	ram[address] = value;
	
	 
}
     55a:	80 e0       	ldi	r24, 0x00	; 0
     55c:	90 e2       	ldi	r25, 0x20	; 32
     55e:	ea e0       	ldi	r30, 0x0A	; 10
     560:	f0 e2       	ldi	r31, 0x20	; 32
     562:	df 01       	movw	r26, r30
     564:	9c 01       	movw	r18, r24
     566:	1d 92       	st	X+, r1
     568:	21 50       	subi	r18, 0x01	; 1
     56a:	30 40       	sbci	r19, 0x00	; 0
     56c:	e1 f7       	brne	.-8      	; 0x566 <engineInit+0xc>
     56e:	10 92 0e 50 	sts	0x500E, r1	; 0x80500e <SREG_status+0x1>
     572:	10 92 0d 50 	sts	0x500D, r1	; 0x80500d <SREG_status>
     576:	84 e0       	ldi	r24, 0x04	; 4
     578:	80 93 0f 50 	sts	0x500F, r24	; 0x80500f <SREG_status+0x2>
     57c:	80 91 00 20 	lds	r24, 0x2000	; 0x802000 <__DATA_REGION_ORIGIN__>
     580:	90 91 01 20 	lds	r25, 0x2001	; 0x802001 <__DATA_REGION_ORIGIN__+0x1>
     584:	80 93 10 50 	sts	0x5010, r24	; 0x805010 <PC>
     588:	90 93 11 50 	sts	0x5011, r25	; 0x805011 <PC+0x1>
     58c:	08 95       	ret

0000058e <fetch>:
     58e:	2f 92       	push	r2
     590:	3f 92       	push	r3
     592:	4f 92       	push	r4
     594:	5f 92       	push	r5
     596:	6f 92       	push	r6
     598:	7f 92       	push	r7
     59a:	8f 92       	push	r8
     59c:	9f 92       	push	r9
     59e:	af 92       	push	r10
     5a0:	bf 92       	push	r11
     5a2:	cf 92       	push	r12
     5a4:	df 92       	push	r13
     5a6:	ef 92       	push	r14
     5a8:	ff 92       	push	r15
     5aa:	0f 93       	push	r16
     5ac:	1f 93       	push	r17
     5ae:	cf 93       	push	r28
     5b0:	df 93       	push	r29
     5b2:	cd b7       	in	r28, 0x3d	; 61
     5b4:	de b7       	in	r29, 0x3e	; 62
     5b6:	c8 59       	subi	r28, 0x98	; 152
     5b8:	d1 09       	sbc	r29, r1
     5ba:	cd bf       	out	0x3d, r28	; 61
     5bc:	de bf       	out	0x3e, r29	; 62
     5be:	80 91 06 20 	lds	r24, 0x2006	; 0x802006 <totalinstructions>
     5c2:	90 91 07 20 	lds	r25, 0x2007	; 0x802007 <totalinstructions+0x1>
     5c6:	a0 91 08 20 	lds	r26, 0x2008	; 0x802008 <totalinstructions+0x2>
     5ca:	b0 91 09 20 	lds	r27, 0x2009	; 0x802009 <totalinstructions+0x3>
     5ce:	01 96       	adiw	r24, 0x01	; 1
     5d0:	a1 1d       	adc	r26, r1
     5d2:	b1 1d       	adc	r27, r1
     5d4:	80 93 06 20 	sts	0x2006, r24	; 0x802006 <totalinstructions>
     5d8:	90 93 07 20 	sts	0x2007, r25	; 0x802007 <totalinstructions+0x1>
     5dc:	a0 93 08 20 	sts	0x2008, r26	; 0x802008 <totalinstructions+0x2>
     5e0:	b0 93 09 20 	sts	0x2009, r27	; 0x802009 <totalinstructions+0x3>
     5e4:	c0 90 14 93 	lds	r12, 0x9314	; 0x809314 <totalcycles>
     5e8:	d0 90 15 93 	lds	r13, 0x9315	; 0x809315 <totalcycles+0x1>
     5ec:	e0 90 16 93 	lds	r14, 0x9316	; 0x809316 <totalcycles+0x2>
     5f0:	f0 90 17 93 	lds	r15, 0x9317	; 0x809317 <totalcycles+0x3>
     5f4:	46 01       	movw	r8, r12
     5f6:	57 01       	movw	r10, r14
     5f8:	b7 01       	movw	r22, r14
     5fa:	a6 01       	movw	r20, r12
     5fc:	4f 5f       	subi	r20, 0xFF	; 255
     5fe:	5f 4f       	sbci	r21, 0xFF	; 255
     600:	6f 4f       	sbci	r22, 0xFF	; 255
     602:	7f 4f       	sbci	r23, 0xFF	; 255
     604:	6a 01       	movw	r12, r20
     606:	7b 01       	movw	r14, r22
     608:	40 93 14 93 	sts	0x9314, r20	; 0x809314 <totalcycles>
     60c:	50 93 15 93 	sts	0x9315, r21	; 0x809315 <totalcycles+0x1>
     610:	60 93 16 93 	sts	0x9316, r22	; 0x809316 <totalcycles+0x2>
     614:	70 93 17 93 	sts	0x9317, r23	; 0x809317 <totalcycles+0x3>
     618:	10 92 12 50 	sts	0x5012, r1	; 0x805012 <result>
     61c:	10 92 13 50 	sts	0x5013, r1	; 0x805013 <result+0x1>
     620:	89 e4       	ldi	r24, 0x49	; 73
     622:	80 93 0c 40 	sts	0x400C, r24	; 0x80400c <newStatus+0x2>
     626:	84 e2       	ldi	r24, 0x24	; 36
     628:	80 93 0b 40 	sts	0x400B, r24	; 0x80400b <newStatus+0x1>
     62c:	82 e9       	ldi	r24, 0x92	; 146
     62e:	80 93 0a 40 	sts	0x400A, r24	; 0x80400a <newStatus>
     632:	20 91 10 50 	lds	r18, 0x5010	; 0x805010 <PC>
     636:	30 91 11 50 	lds	r19, 0x5011	; 0x805011 <PC+0x1>
     63a:	c9 56       	subi	r28, 0x69	; 105
     63c:	df 4f       	sbci	r29, 0xFF	; 255
     63e:	28 83       	st	Y, r18
     640:	39 83       	std	Y+1, r19	; 0x01
     642:	c7 59       	subi	r28, 0x97	; 151
     644:	d0 40       	sbci	r29, 0x00	; 0
     646:	f9 01       	movw	r30, r18
     648:	ee 0f       	add	r30, r30
     64a:	ff 1f       	adc	r31, r31
     64c:	8f 01       	movw	r16, r30
     64e:	06 5f       	subi	r16, 0xF6	; 246
     650:	1f 4d       	sbci	r17, 0xDF	; 223
     652:	38 01       	movw	r6, r16
     654:	d8 01       	movw	r26, r16
     656:	8d 91       	ld	r24, X+
     658:	9c 91       	ld	r25, X
     65a:	d9 01       	movw	r26, r18
     65c:	a3 5f       	subi	r26, 0xF3	; 243
     65e:	bf 4b       	sbci	r27, 0xBF	; 191
     660:	89 2b       	or	r24, r25
     662:	a9 f4       	brne	.+42     	; 0x68e <fetch+0x100>
     664:	5c 90       	ld	r5, X
     666:	c9 01       	movw	r24, r18
     668:	01 96       	adiw	r24, 0x01	; 1
     66a:	fc 01       	movw	r30, r24
     66c:	e3 5f       	subi	r30, 0xF3	; 243
     66e:	ff 4b       	sbci	r31, 0xBF	; 191
     670:	40 80       	ld	r4, Z
     672:	4c 92       	st	X, r4
     674:	50 82       	st	Z, r5
     676:	01 e0       	ldi	r16, 0x01	; 1
     678:	10 e0       	ldi	r17, 0x00	; 0
     67a:	f3 01       	movw	r30, r6
     67c:	00 83       	st	Z, r16
     67e:	11 83       	std	Z+1, r17	; 0x01
     680:	88 0f       	add	r24, r24
     682:	99 1f       	adc	r25, r25
     684:	fc 01       	movw	r30, r24
     686:	e6 5f       	subi	r30, 0xF6	; 246
     688:	ff 4d       	sbci	r31, 0xDF	; 223
     68a:	00 83       	st	Z, r16
     68c:	11 83       	std	Z+1, r17	; 0x01
     68e:	9c 91       	ld	r25, X
     690:	49 2e       	mov	r4, r25
     692:	51 2c       	mov	r5, r1
     694:	f2 01       	movw	r30, r4
     696:	88 27       	eor	r24, r24
     698:	e2 50       	subi	r30, 0x02	; 2
     69a:	ff 4f       	sbci	r31, 0xFF	; 255
     69c:	8f 4f       	sbci	r24, 0xFF	; 255
     69e:	0c 94 4f 28 	jmp	0x509e	; 0x509e <__tablejump2__>
     6a2:	11 96       	adiw	r26, 0x01	; 1
     6a4:	8c 91       	ld	r24, X
     6a6:	11 97       	sbiw	r26, 0x01	; 1
     6a8:	68 2f       	mov	r22, r24
     6aa:	6f 70       	andi	r22, 0x0F	; 15
     6ac:	68 30       	cpi	r22, 0x08	; 8
     6ae:	10 f0       	brcs	.+4      	; 0x6b4 <fetch+0x126>
     6b0:	0c 94 68 0e 	jmp	0x1cd0	; 0x1cd0 <fetch+0x1742>
     6b4:	91 70       	andi	r25, 0x01	; 1
     6b6:	9d ab       	std	Y+53, r25	; 0x35
     6b8:	1e aa       	std	Y+54, r1	; 0x36
     6ba:	ed a9       	ldd	r30, Y+53	; 0x35
     6bc:	fe a9       	ldd	r31, Y+54	; 0x36
     6be:	e2 95       	swap	r30
     6c0:	f2 95       	swap	r31
     6c2:	f0 7f       	andi	r31, 0xF0	; 240
     6c4:	fe 27       	eor	r31, r30
     6c6:	e0 7f       	andi	r30, 0xF0	; 240
     6c8:	fe 27       	eor	r31, r30
     6ca:	82 95       	swap	r24
     6cc:	8f 70       	andi	r24, 0x0F	; 15
     6ce:	e8 2b       	or	r30, r24
     6d0:	ec 5e       	subi	r30, 0xEC	; 236
     6d2:	ff 4a       	sbci	r31, 0xAF	; 175
     6d4:	80 81       	ld	r24, Z
     6d6:	90 e0       	ldi	r25, 0x00	; 0
     6d8:	80 93 12 50 	sts	0x5012, r24	; 0x805012 <result>
     6dc:	90 93 13 50 	sts	0x5013, r25	; 0x805013 <result+0x1>
     6e0:	41 e0       	ldi	r20, 0x01	; 1
     6e2:	50 e0       	ldi	r21, 0x00	; 0
     6e4:	02 c0       	rjmp	.+4      	; 0x6ea <fetch+0x15c>
     6e6:	44 0f       	add	r20, r20
     6e8:	55 1f       	adc	r21, r21
     6ea:	6a 95       	dec	r22
     6ec:	e2 f7       	brpl	.-8      	; 0x6e6 <fetch+0x158>
     6ee:	84 23       	and	r24, r20
     6f0:	95 23       	and	r25, r21
     6f2:	89 2b       	or	r24, r25
     6f4:	49 f1       	breq	.+82     	; 0x748 <fetch+0x1ba>
     6f6:	89 01       	movw	r16, r18
     6f8:	0e 5f       	subi	r16, 0xFE	; 254
     6fa:	1f 4f       	sbci	r17, 0xFF	; 255
     6fc:	b5 01       	movw	r22, r10
     6fe:	a4 01       	movw	r20, r8
     700:	4e 5f       	subi	r20, 0xFE	; 254
     702:	5f 4f       	sbci	r21, 0xFF	; 255
     704:	6f 4f       	sbci	r22, 0xFF	; 255
     706:	7f 4f       	sbci	r23, 0xFF	; 255
     708:	40 93 14 93 	sts	0x9314, r20	; 0x809314 <totalcycles>
     70c:	50 93 15 93 	sts	0x9315, r21	; 0x809315 <totalcycles+0x1>
     710:	60 93 16 93 	sts	0x9316, r22	; 0x809316 <totalcycles+0x2>
     714:	70 93 17 93 	sts	0x9317, r23	; 0x809317 <totalcycles+0x3>
     718:	13 96       	adiw	r26, 0x03	; 3
     71a:	9c 91       	ld	r25, X
     71c:	f8 01       	movw	r30, r16
     71e:	e3 5f       	subi	r30, 0xF3	; 243
     720:	ff 4b       	sbci	r31, 0xBF	; 191
     722:	80 81       	ld	r24, Z
     724:	84 39       	cpi	r24, 0x94	; 148
     726:	10 f0       	brcs	.+4      	; 0x72c <fetch+0x19e>
     728:	0c 94 e0 1c 	jmp	0x39c0	; 0x39c0 <fetch+0x3432>
     72c:	82 39       	cpi	r24, 0x92	; 146
     72e:	10 f4       	brcc	.+4      	; 0x734 <fetch+0x1a6>
     730:	80 39       	cpi	r24, 0x90	; 144
     732:	20 f0       	brcs	.+8      	; 0x73c <fetch+0x1ae>
     734:	9f 70       	andi	r25, 0x0F	; 15
     736:	11 f4       	brne	.+4      	; 0x73c <fetch+0x1ae>
     738:	0c 94 e9 1c 	jmp	0x39d2	; 0x39d2 <fetch+0x3444>
     73c:	c9 56       	subi	r28, 0x69	; 105
     73e:	df 4f       	sbci	r29, 0xFF	; 255
     740:	08 83       	st	Y, r16
     742:	19 83       	std	Y+1, r17	; 0x01
     744:	c7 59       	subi	r28, 0x97	; 151
     746:	d0 40       	sbci	r29, 0x00	; 0
     748:	c9 56       	subi	r28, 0x69	; 105
     74a:	df 4f       	sbci	r29, 0xFF	; 255
     74c:	08 81       	ld	r16, Y
     74e:	19 81       	ldd	r17, Y+1	; 0x01
     750:	c7 59       	subi	r28, 0x97	; 151
     752:	d0 40       	sbci	r29, 0x00	; 0
     754:	0e 5f       	subi	r16, 0xFE	; 254
     756:	1f 4f       	sbci	r17, 0xFF	; 255
     758:	00 93 10 50 	sts	0x5010, r16	; 0x805010 <PC>
     75c:	10 93 11 50 	sts	0x5011, r17	; 0x805011 <PC+0x1>
     760:	e2 e0       	ldi	r30, 0x02	; 2
     762:	92 e0       	ldi	r25, 0x02	; 2
     764:	80 91 0c 40 	lds	r24, 0x400C	; 0x80400c <newStatus+0x2>
     768:	28 2f       	mov	r18, r24
     76a:	20 7e       	andi	r18, 0xE0	; 224
     76c:	20 34       	cpi	r18, 0x40	; 64
     76e:	41 f0       	breq	.+16     	; 0x780 <fetch+0x1f2>
     770:	20 91 0f 50 	lds	r18, 0x500F	; 0x80500f <SREG_status+0x2>
     774:	2f 71       	andi	r18, 0x1F	; 31
     776:	38 2f       	mov	r19, r24
     778:	30 7e       	andi	r19, 0xE0	; 224
     77a:	23 2b       	or	r18, r19
     77c:	20 93 0f 50 	sts	0x500F, r18	; 0x80500f <SREG_status+0x2>
     780:	8c 71       	andi	r24, 0x1C	; 28
     782:	88 30       	cpi	r24, 0x08	; 8
     784:	51 f0       	breq	.+20     	; 0x79a <fetch+0x20c>
     786:	20 91 0c 40 	lds	r18, 0x400C	; 0x80400c <newStatus+0x2>
     78a:	32 2f       	mov	r19, r18
     78c:	3c 71       	andi	r19, 0x1C	; 28
     78e:	20 91 0f 50 	lds	r18, 0x500F	; 0x80500f <SREG_status+0x2>
     792:	23 7e       	andi	r18, 0xE3	; 227
     794:	23 2b       	or	r18, r19
     796:	20 93 0f 50 	sts	0x500F, r18	; 0x80500f <SREG_status+0x2>
     79a:	92 30       	cpi	r25, 0x02	; 2
     79c:	81 f0       	breq	.+32     	; 0x7be <fetch+0x230>
     79e:	20 91 0e 50 	lds	r18, 0x500E	; 0x80500e <SREG_status+0x1>
     7a2:	90 fb       	bst	r25, 0
     7a4:	27 f9       	bld	r18, 7
     7a6:	20 93 0e 50 	sts	0x500E, r18	; 0x80500e <SREG_status+0x1>
     7aa:	89 2f       	mov	r24, r25
     7ac:	86 95       	lsr	r24
     7ae:	98 2f       	mov	r25, r24
     7b0:	93 70       	andi	r25, 0x03	; 3
     7b2:	80 91 0f 50 	lds	r24, 0x500F	; 0x80500f <SREG_status+0x2>
     7b6:	8c 7f       	andi	r24, 0xFC	; 252
     7b8:	89 2b       	or	r24, r25
     7ba:	80 93 0f 50 	sts	0x500F, r24	; 0x80500f <SREG_status+0x2>
     7be:	80 91 0b 40 	lds	r24, 0x400B	; 0x80400b <newStatus+0x1>
     7c2:	98 2f       	mov	r25, r24
     7c4:	90 77       	andi	r25, 0x70	; 112
     7c6:	90 32       	cpi	r25, 0x20	; 32
     7c8:	41 f0       	breq	.+16     	; 0x7da <fetch+0x24c>
     7ca:	90 91 0e 50 	lds	r25, 0x500E	; 0x80500e <SREG_status+0x1>
     7ce:	9f 78       	andi	r25, 0x8F	; 143
     7d0:	28 2f       	mov	r18, r24
     7d2:	20 77       	andi	r18, 0x70	; 112
     7d4:	92 2b       	or	r25, r18
     7d6:	90 93 0e 50 	sts	0x500E, r25	; 0x80500e <SREG_status+0x1>
     7da:	8e 70       	andi	r24, 0x0E	; 14
     7dc:	84 30       	cpi	r24, 0x04	; 4
     7de:	51 f0       	breq	.+20     	; 0x7f4 <fetch+0x266>
     7e0:	80 91 0b 40 	lds	r24, 0x400B	; 0x80400b <newStatus+0x1>
     7e4:	98 2f       	mov	r25, r24
     7e6:	9e 70       	andi	r25, 0x0E	; 14
     7e8:	80 91 0e 50 	lds	r24, 0x500E	; 0x80500e <SREG_status+0x1>
     7ec:	81 7f       	andi	r24, 0xF1	; 241
     7ee:	89 2b       	or	r24, r25
     7f0:	80 93 0e 50 	sts	0x500E, r24	; 0x80500e <SREG_status+0x1>
     7f4:	e2 30       	cpi	r30, 0x02	; 2
     7f6:	a1 f0       	breq	.+40     	; 0x820 <fetch+0x292>
     7f8:	9e 2f       	mov	r25, r30
     7fa:	92 95       	swap	r25
     7fc:	99 0f       	add	r25, r25
     7fe:	99 0f       	add	r25, r25
     800:	90 7c       	andi	r25, 0xC0	; 192
     802:	80 91 0d 50 	lds	r24, 0x500D	; 0x80500d <SREG_status>
     806:	8f 73       	andi	r24, 0x3F	; 63
     808:	89 2b       	or	r24, r25
     80a:	80 93 0d 50 	sts	0x500D, r24	; 0x80500d <SREG_status>
     80e:	e2 fb       	bst	r30, 2
     810:	88 27       	eor	r24, r24
     812:	80 f9       	bld	r24, 0
     814:	e0 91 0e 50 	lds	r30, 0x500E	; 0x80500e <SREG_status+0x1>
     818:	ee 7f       	andi	r30, 0xFE	; 254
     81a:	e8 2b       	or	r30, r24
     81c:	e0 93 0e 50 	sts	0x500E, r30	; 0x80500e <SREG_status+0x1>
     820:	80 91 0a 40 	lds	r24, 0x400A	; 0x80400a <newStatus>
     824:	98 2f       	mov	r25, r24
     826:	98 73       	andi	r25, 0x38	; 56
     828:	90 31       	cpi	r25, 0x10	; 16
     82a:	41 f0       	breq	.+16     	; 0x83c <fetch+0x2ae>
     82c:	90 91 0d 50 	lds	r25, 0x500D	; 0x80500d <SREG_status>
     830:	97 7c       	andi	r25, 0xC7	; 199
     832:	28 2f       	mov	r18, r24
     834:	28 73       	andi	r18, 0x38	; 56
     836:	92 2b       	or	r25, r18
     838:	90 93 0d 50 	sts	0x500D, r25	; 0x80500d <SREG_status>
     83c:	87 70       	andi	r24, 0x07	; 7
     83e:	82 30       	cpi	r24, 0x02	; 2
     840:	11 f4       	brne	.+4      	; 0x846 <fetch+0x2b8>
     842:	0c 94 94 18 	jmp	0x3128	; 0x3128 <fetch+0x2b9a>
     846:	80 91 0a 40 	lds	r24, 0x400A	; 0x80400a <newStatus>
     84a:	98 2f       	mov	r25, r24
     84c:	97 70       	andi	r25, 0x07	; 7
     84e:	80 91 0d 50 	lds	r24, 0x500D	; 0x80500d <SREG_status>
     852:	88 7f       	andi	r24, 0xF8	; 248
     854:	89 2b       	or	r24, r25
     856:	80 93 0d 50 	sts	0x500D, r24	; 0x80500d <SREG_status>
     85a:	61 e0       	ldi	r22, 0x01	; 1
     85c:	70 e0       	ldi	r23, 0x00	; 0
     85e:	80 e0       	ldi	r24, 0x00	; 0
     860:	90 e0       	ldi	r25, 0x00	; 0
     862:	c8 56       	subi	r28, 0x68	; 104
     864:	df 4f       	sbci	r29, 0xFF	; 255
     866:	cd bf       	out	0x3d, r28	; 61
     868:	de bf       	out	0x3e, r29	; 62
     86a:	df 91       	pop	r29
     86c:	cf 91       	pop	r28
     86e:	1f 91       	pop	r17
     870:	0f 91       	pop	r16
     872:	ff 90       	pop	r15
     874:	ef 90       	pop	r14
     876:	df 90       	pop	r13
     878:	cf 90       	pop	r12
     87a:	bf 90       	pop	r11
     87c:	af 90       	pop	r10
     87e:	9f 90       	pop	r9
     880:	8f 90       	pop	r8
     882:	7f 90       	pop	r7
     884:	6f 90       	pop	r6
     886:	5f 90       	pop	r5
     888:	4f 90       	pop	r4
     88a:	3f 90       	pop	r3
     88c:	2f 90       	pop	r2
     88e:	08 95       	ret
     890:	11 96       	adiw	r26, 0x01	; 1
     892:	8c 91       	ld	r24, X
     894:	11 97       	sbiw	r26, 0x01	; 1
     896:	68 2f       	mov	r22, r24
     898:	6f 70       	andi	r22, 0x0F	; 15
     89a:	68 30       	cpi	r22, 0x08	; 8
     89c:	10 f0       	brcs	.+4      	; 0x8a2 <fetch+0x314>
     89e:	0c 94 68 0e 	jmp	0x1cd0	; 0x1cd0 <fetch+0x1742>
     8a2:	91 70       	andi	r25, 0x01	; 1
     8a4:	9b ab       	std	Y+51, r25	; 0x33
     8a6:	1c aa       	std	Y+52, r1	; 0x34
     8a8:	eb a9       	ldd	r30, Y+51	; 0x33
     8aa:	fc a9       	ldd	r31, Y+52	; 0x34
     8ac:	e2 95       	swap	r30
     8ae:	f2 95       	swap	r31
     8b0:	f0 7f       	andi	r31, 0xF0	; 240
     8b2:	fe 27       	eor	r31, r30
     8b4:	e0 7f       	andi	r30, 0xF0	; 240
     8b6:	fe 27       	eor	r31, r30
     8b8:	82 95       	swap	r24
     8ba:	8f 70       	andi	r24, 0x0F	; 15
     8bc:	e8 2b       	or	r30, r24
     8be:	ec 5e       	subi	r30, 0xEC	; 236
     8c0:	ff 4a       	sbci	r31, 0xAF	; 175
     8c2:	80 81       	ld	r24, Z
     8c4:	90 e0       	ldi	r25, 0x00	; 0
     8c6:	80 93 12 50 	sts	0x5012, r24	; 0x805012 <result>
     8ca:	90 93 13 50 	sts	0x5013, r25	; 0x805013 <result+0x1>
     8ce:	41 e0       	ldi	r20, 0x01	; 1
     8d0:	50 e0       	ldi	r21, 0x00	; 0
     8d2:	02 c0       	rjmp	.+4      	; 0x8d8 <fetch+0x34a>
     8d4:	44 0f       	add	r20, r20
     8d6:	55 1f       	adc	r21, r21
     8d8:	6a 95       	dec	r22
     8da:	e2 f7       	brpl	.-8      	; 0x8d4 <fetch+0x346>
     8dc:	84 23       	and	r24, r20
     8de:	95 23       	and	r25, r21
     8e0:	89 2b       	or	r24, r25
     8e2:	09 f0       	breq	.+2      	; 0x8e6 <fetch+0x358>
     8e4:	31 cf       	rjmp	.-414    	; 0x748 <fetch+0x1ba>
     8e6:	89 01       	movw	r16, r18
     8e8:	0e 5f       	subi	r16, 0xFE	; 254
     8ea:	1f 4f       	sbci	r17, 0xFF	; 255
     8ec:	b5 01       	movw	r22, r10
     8ee:	a4 01       	movw	r20, r8
     8f0:	4e 5f       	subi	r20, 0xFE	; 254
     8f2:	5f 4f       	sbci	r21, 0xFF	; 255
     8f4:	6f 4f       	sbci	r22, 0xFF	; 255
     8f6:	7f 4f       	sbci	r23, 0xFF	; 255
     8f8:	40 93 14 93 	sts	0x9314, r20	; 0x809314 <totalcycles>
     8fc:	50 93 15 93 	sts	0x9315, r21	; 0x809315 <totalcycles+0x1>
     900:	60 93 16 93 	sts	0x9316, r22	; 0x809316 <totalcycles+0x2>
     904:	70 93 17 93 	sts	0x9317, r23	; 0x809317 <totalcycles+0x3>
     908:	13 96       	adiw	r26, 0x03	; 3
     90a:	9c 91       	ld	r25, X
     90c:	f8 01       	movw	r30, r16
     90e:	e3 5f       	subi	r30, 0xF3	; 243
     910:	ff 4b       	sbci	r31, 0xBF	; 191
     912:	80 81       	ld	r24, Z
     914:	84 39       	cpi	r24, 0x94	; 148
     916:	10 f0       	brcs	.+4      	; 0x91c <fetch+0x38e>
     918:	0c 94 66 1e 	jmp	0x3ccc	; 0x3ccc <fetch+0x373e>
     91c:	82 39       	cpi	r24, 0x92	; 146
     91e:	18 f4       	brcc	.+6      	; 0x926 <fetch+0x398>
     920:	80 39       	cpi	r24, 0x90	; 144
     922:	08 f4       	brcc	.+2      	; 0x926 <fetch+0x398>
     924:	0b cf       	rjmp	.-490    	; 0x73c <fetch+0x1ae>
     926:	9f 70       	andi	r25, 0x0F	; 15
     928:	09 f0       	breq	.+2      	; 0x92c <fetch+0x39e>
     92a:	08 cf       	rjmp	.-496    	; 0x73c <fetch+0x1ae>
     92c:	b9 01       	movw	r22, r18
     92e:	6c 5f       	subi	r22, 0xFC	; 252
     930:	7f 4f       	sbci	r23, 0xFF	; 255
     932:	c9 56       	subi	r28, 0x69	; 105
     934:	df 4f       	sbci	r29, 0xFF	; 255
     936:	68 83       	st	Y, r22
     938:	79 83       	std	Y+1, r23	; 0x01
     93a:	c7 59       	subi	r28, 0x97	; 151
     93c:	d0 40       	sbci	r29, 0x00	; 0
     93e:	73 e0       	ldi	r23, 0x03	; 3
     940:	87 0e       	add	r8, r23
     942:	91 1c       	adc	r9, r1
     944:	a1 1c       	adc	r10, r1
     946:	b1 1c       	adc	r11, r1
     948:	80 92 14 93 	sts	0x9314, r8	; 0x809314 <totalcycles>
     94c:	90 92 15 93 	sts	0x9315, r9	; 0x809315 <totalcycles+0x1>
     950:	a0 92 16 93 	sts	0x9316, r10	; 0x809316 <totalcycles+0x2>
     954:	b0 92 17 93 	sts	0x9317, r11	; 0x809317 <totalcycles+0x3>
     958:	f7 ce       	rjmp	.-530    	; 0x748 <fetch+0x1ba>
     95a:	11 96       	adiw	r26, 0x01	; 1
     95c:	4c 91       	ld	r20, X
     95e:	91 70       	andi	r25, 0x01	; 1
     960:	99 ab       	std	Y+49, r25	; 0x31
     962:	1a aa       	std	Y+50, r1	; 0x32
     964:	e9 a9       	ldd	r30, Y+49	; 0x31
     966:	fa a9       	ldd	r31, Y+50	; 0x32
     968:	e2 95       	swap	r30
     96a:	f2 95       	swap	r31
     96c:	f0 7f       	andi	r31, 0xF0	; 240
     96e:	fe 27       	eor	r31, r30
     970:	e0 7f       	andi	r30, 0xF0	; 240
     972:	fe 27       	eor	r31, r30
     974:	84 2f       	mov	r24, r20
     976:	82 95       	swap	r24
     978:	8f 70       	andi	r24, 0x0F	; 15
     97a:	e8 2b       	or	r30, r24
     97c:	ec 5e       	subi	r30, 0xEC	; 236
     97e:	ff 4a       	sbci	r31, 0xAF	; 175
     980:	80 81       	ld	r24, Z
     982:	90 e0       	ldi	r25, 0x00	; 0
     984:	80 93 12 50 	sts	0x5012, r24	; 0x805012 <result>
     988:	90 93 13 50 	sts	0x5013, r25	; 0x805013 <result+0x1>
     98c:	47 70       	andi	r20, 0x07	; 7
     98e:	61 e0       	ldi	r22, 0x01	; 1
     990:	70 e0       	ldi	r23, 0x00	; 0
     992:	fb 01       	movw	r30, r22
     994:	02 c0       	rjmp	.+4      	; 0x99a <fetch+0x40c>
     996:	ee 0f       	add	r30, r30
     998:	ff 1f       	adc	r31, r31
     99a:	4a 95       	dec	r20
     99c:	e2 f7       	brpl	.-8      	; 0x996 <fetch+0x408>
     99e:	8e 23       	and	r24, r30
     9a0:	9f 23       	and	r25, r31
     9a2:	41 e0       	ldi	r20, 0x01	; 1
     9a4:	89 2b       	or	r24, r25
     9a6:	09 f4       	brne	.+2      	; 0x9aa <fetch+0x41c>
     9a8:	40 e0       	ldi	r20, 0x00	; 0
     9aa:	44 0f       	add	r20, r20
     9ac:	44 0f       	add	r20, r20
     9ae:	44 0f       	add	r20, r20
     9b0:	80 91 0a 40 	lds	r24, 0x400A	; 0x80400a <newStatus>
     9b4:	87 7c       	andi	r24, 0xC7	; 199
     9b6:	48 2b       	or	r20, r24
     9b8:	40 93 0a 40 	sts	0x400A, r20	; 0x80400a <newStatus>
     9bc:	2e 5f       	subi	r18, 0xFE	; 254
     9be:	3f 4f       	sbci	r19, 0xFF	; 255
     9c0:	20 93 10 50 	sts	0x5010, r18	; 0x805010 <PC>
     9c4:	30 93 11 50 	sts	0x5011, r19	; 0x805011 <PC+0x1>
     9c8:	e2 e0       	ldi	r30, 0x02	; 2
     9ca:	92 e0       	ldi	r25, 0x02	; 2
     9cc:	cb ce       	rjmp	.-618    	; 0x764 <fetch+0x1d6>
     9ce:	11 96       	adiw	r26, 0x01	; 1
     9d0:	8c 91       	ld	r24, X
     9d2:	48 2f       	mov	r20, r24
     9d4:	4f 70       	andi	r20, 0x0F	; 15
     9d6:	48 30       	cpi	r20, 0x08	; 8
     9d8:	10 f0       	brcs	.+4      	; 0x9de <fetch+0x450>
     9da:	0c 94 68 0e 	jmp	0x1cd0	; 0x1cd0 <fetch+0x1742>
     9de:	40 91 0d 50 	lds	r20, 0x500D	; 0x80500d <SREG_status>
     9e2:	48 73       	andi	r20, 0x38	; 56
     9e4:	91 70       	andi	r25, 0x01	; 1
     9e6:	48 30       	cpi	r20, 0x08	; 8
     9e8:	11 f4       	brne	.+4      	; 0x9ee <fetch+0x460>
     9ea:	0c 94 7a 1c 	jmp	0x38f4	; 0x38f4 <fetch+0x3366>
     9ee:	9f ab       	std	Y+55, r25	; 0x37
     9f0:	18 ae       	std	Y+56, r1	; 0x38
     9f2:	ef a9       	ldd	r30, Y+55	; 0x37
     9f4:	f8 ad       	ldd	r31, Y+56	; 0x38
     9f6:	e2 95       	swap	r30
     9f8:	f2 95       	swap	r31
     9fa:	f0 7f       	andi	r31, 0xF0	; 240
     9fc:	fe 27       	eor	r31, r30
     9fe:	e0 7f       	andi	r30, 0xF0	; 240
     a00:	fe 27       	eor	r31, r30
     a02:	98 2f       	mov	r25, r24
     a04:	92 95       	swap	r25
     a06:	9f 70       	andi	r25, 0x0F	; 15
     a08:	e9 2b       	or	r30, r25
     a0a:	ec 5e       	subi	r30, 0xEC	; 236
     a0c:	ff 4a       	sbci	r31, 0xAF	; 175
     a0e:	87 70       	andi	r24, 0x07	; 7
     a10:	41 e0       	ldi	r20, 0x01	; 1
     a12:	50 e0       	ldi	r21, 0x00	; 0
     a14:	da 01       	movw	r26, r20
     a16:	02 c0       	rjmp	.+4      	; 0xa1c <fetch+0x48e>
     a18:	aa 0f       	add	r26, r26
     a1a:	bb 1f       	adc	r27, r27
     a1c:	8a 95       	dec	r24
     a1e:	e2 f7       	brpl	.-8      	; 0xa18 <fetch+0x48a>
     a20:	cd 01       	movw	r24, r26
     a22:	80 95       	com	r24
     a24:	90 81       	ld	r25, Z
     a26:	89 23       	and	r24, r25
     a28:	80 83       	st	Z, r24
     a2a:	c8 cf       	rjmp	.-112    	; 0x9bc <fetch+0x42e>
     a2c:	11 96       	adiw	r26, 0x01	; 1
     a2e:	8c 91       	ld	r24, X
     a30:	48 2f       	mov	r20, r24
     a32:	47 70       	andi	r20, 0x07	; 7
     a34:	42 30       	cpi	r20, 0x02	; 2
     a36:	11 f4       	brne	.+4      	; 0xa3c <fetch+0x4ae>
     a38:	0c 94 e7 20 	jmp	0x41ce	; 0x41ce <fetch+0x3c40>
     a3c:	41 11       	cpse	r20, r1
     a3e:	0c 94 14 1d 	jmp	0x3a28	; 0x3a28 <fetch+0x349a>
     a42:	40 91 0f 50 	lds	r20, 0x500F	; 0x80500f <SREG_status+0x2>
     a46:	40 7e       	andi	r20, 0xE0	; 224
     a48:	09 f0       	breq	.+2      	; 0xa4c <fetch+0x4be>
     a4a:	7e ce       	rjmp	.-772    	; 0x748 <fetch+0x1ba>
     a4c:	93 70       	andi	r25, 0x03	; 3
     a4e:	a0 e2       	ldi	r26, 0x20	; 32
     a50:	9a 9f       	mul	r25, r26
     a52:	a0 01       	movw	r20, r0
     a54:	11 24       	eor	r1, r1
     a56:	86 95       	lsr	r24
     a58:	86 95       	lsr	r24
     a5a:	86 95       	lsr	r24
     a5c:	fa 01       	movw	r30, r20
     a5e:	e8 2b       	or	r30, r24
     a60:	cf 01       	movw	r24, r30
     a62:	80 93 12 50 	sts	0x5012, r24	; 0x805012 <result>
     a66:	90 93 13 50 	sts	0x5013, r25	; 0x805013 <result+0x1>
     a6a:	81 34       	cpi	r24, 0x41	; 65
     a6c:	91 05       	cpc	r25, r1
     a6e:	14 f4       	brge	.+4      	; 0xa74 <fetch+0x4e6>
     a70:	0c 94 2f 24 	jmp	0x485e	; 0x485e <fetch+0x42d0>
     a74:	3a 95       	dec	r19
     a76:	88 0f       	add	r24, r24
     a78:	99 1f       	adc	r25, r25
     a7a:	6c 01       	movw	r12, r24
     a7c:	c2 0e       	add	r12, r18
     a7e:	d3 1e       	adc	r13, r19
     a80:	c9 56       	subi	r28, 0x69	; 105
     a82:	df 4f       	sbci	r29, 0xFF	; 255
     a84:	c8 82       	st	Y, r12
     a86:	d9 82       	std	Y+1, r13	; 0x01
     a88:	c7 59       	subi	r28, 0x97	; 151
     a8a:	d0 40       	sbci	r29, 0x00	; 0
     a8c:	02 e0       	ldi	r16, 0x02	; 2
     a8e:	80 0e       	add	r8, r16
     a90:	91 1c       	adc	r9, r1
     a92:	a1 1c       	adc	r10, r1
     a94:	b1 1c       	adc	r11, r1
     a96:	80 92 14 93 	sts	0x9314, r8	; 0x809314 <totalcycles>
     a9a:	90 92 15 93 	sts	0x9315, r9	; 0x809315 <totalcycles+0x1>
     a9e:	a0 92 16 93 	sts	0x9316, r10	; 0x809316 <totalcycles+0x2>
     aa2:	b0 92 17 93 	sts	0x9317, r11	; 0x809317 <totalcycles+0x3>
     aa6:	50 ce       	rjmp	.-864    	; 0x748 <fetch+0x1ba>
     aa8:	11 96       	adiw	r26, 0x01	; 1
     aaa:	4c 91       	ld	r20, X
     aac:	84 2f       	mov	r24, r20
     aae:	87 70       	andi	r24, 0x07	; 7
     ab0:	11 f0       	breq	.+4      	; 0xab6 <fetch+0x528>
     ab2:	0c 94 58 1c 	jmp	0x38b0	; 0x38b0 <fetch+0x3322>
     ab6:	80 91 0f 50 	lds	r24, 0x500F	; 0x80500f <SREG_status+0x2>
     aba:	80 7e       	andi	r24, 0xE0	; 224
     abc:	80 32       	cpi	r24, 0x20	; 32
     abe:	09 f0       	breq	.+2      	; 0xac2 <fetch+0x534>
     ac0:	43 ce       	rjmp	.-890    	; 0x748 <fetch+0x1ba>
     ac2:	89 2f       	mov	r24, r25
     ac4:	83 70       	andi	r24, 0x03	; 3
     ac6:	70 e2       	ldi	r23, 0x20	; 32
     ac8:	87 9f       	mul	r24, r23
     aca:	c0 01       	movw	r24, r0
     acc:	11 24       	eor	r1, r1
     ace:	46 95       	lsr	r20
     ad0:	46 95       	lsr	r20
     ad2:	46 95       	lsr	r20
     ad4:	84 2b       	or	r24, r20
     ad6:	80 93 12 50 	sts	0x5012, r24	; 0x805012 <result>
     ada:	90 93 13 50 	sts	0x5013, r25	; 0x805013 <result+0x1>
     ade:	81 34       	cpi	r24, 0x41	; 65
     ae0:	91 05       	cpc	r25, r1
     ae2:	14 f4       	brge	.+4      	; 0xae8 <fetch+0x55a>
     ae4:	0c 94 c8 1f 	jmp	0x3f90	; 0x3f90 <fetch+0x3a02>
     ae8:	3a 95       	dec	r19
     aea:	88 0f       	add	r24, r24
     aec:	99 1f       	adc	r25, r25
     aee:	dc 01       	movw	r26, r24
     af0:	a2 0f       	add	r26, r18
     af2:	b3 1f       	adc	r27, r19
     af4:	c9 56       	subi	r28, 0x69	; 105
     af6:	df 4f       	sbci	r29, 0xFF	; 255
     af8:	a8 83       	st	Y, r26
     afa:	b9 83       	std	Y+1, r27	; 0x01
     afc:	c7 59       	subi	r28, 0x97	; 151
     afe:	d0 40       	sbci	r29, 0x00	; 0
     b00:	23 ce       	rjmp	.-954    	; 0x748 <fetch+0x1ba>
     b02:	11 96       	adiw	r26, 0x01	; 1
     b04:	8c 91       	ld	r24, X
     b06:	e8 2f       	mov	r30, r24
     b08:	e2 95       	swap	r30
     b0a:	ef 70       	andi	r30, 0x0F	; 15
     b0c:	f0 e0       	ldi	r31, 0x00	; 0
     b0e:	ec 5e       	subi	r30, 0xEC	; 236
     b10:	ff 4a       	sbci	r31, 0xAF	; 175
     b12:	60 e1       	ldi	r22, 0x10	; 16
     b14:	96 9f       	mul	r25, r22
     b16:	a0 01       	movw	r20, r0
     b18:	11 24       	eor	r1, r1
     b1a:	8f 70       	andi	r24, 0x0F	; 15
     b1c:	84 2b       	or	r24, r20
     b1e:	80 8b       	std	Z+16, r24	; 0x10
     b20:	2e 5f       	subi	r18, 0xFE	; 254
     b22:	3f 4f       	sbci	r19, 0xFF	; 255
     b24:	20 93 10 50 	sts	0x5010, r18	; 0x805010 <PC>
     b28:	30 93 11 50 	sts	0x5011, r19	; 0x805011 <PC+0x1>
     b2c:	e2 e0       	ldi	r30, 0x02	; 2
     b2e:	92 e0       	ldi	r25, 0x02	; 2
     b30:	19 ce       	rjmp	.-974    	; 0x764 <fetch+0x1d6>
     b32:	9f 70       	andi	r25, 0x0F	; 15
     b34:	89 2f       	mov	r24, r25
     b36:	90 e0       	ldi	r25, 0x00	; 0
     b38:	98 2f       	mov	r25, r24
     b3a:	88 27       	eor	r24, r24
     b3c:	11 96       	adiw	r26, 0x01	; 1
     b3e:	4c 91       	ld	r20, X
     b40:	84 2b       	or	r24, r20
     b42:	80 93 12 50 	sts	0x5012, r24	; 0x805012 <result>
     b46:	90 93 13 50 	sts	0x5013, r25	; 0x805013 <result+0x1>
     b4a:	d9 01       	movw	r26, r18
     b4c:	12 96       	adiw	r26, 0x02	; 2
     b4e:	e0 91 71 50 	lds	r30, 0x5071	; 0x805071 <ram+0x5d>
     b52:	f0 91 72 50 	lds	r31, 0x5072	; 0x805072 <ram+0x5e>
     b56:	ec 5e       	subi	r30, 0xEC	; 236
     b58:	ff 4a       	sbci	r31, 0xAF	; 175
     b5a:	a0 83       	st	Z, r26
     b5c:	c0 90 71 50 	lds	r12, 0x5071	; 0x805071 <ram+0x5d>
     b60:	d0 90 72 50 	lds	r13, 0x5072	; 0x805072 <ram+0x5e>
     b64:	0d 2c       	mov	r0, r13
     b66:	00 0c       	add	r0, r0
     b68:	ee 08       	sbc	r14, r14
     b6a:	ff 08       	sbc	r15, r15
     b6c:	01 e0       	ldi	r16, 0x01	; 1
     b6e:	c0 1a       	sub	r12, r16
     b70:	d1 08       	sbc	r13, r1
     b72:	e1 08       	sbc	r14, r1
     b74:	f1 08       	sbc	r15, r1
     b76:	4d 2d       	mov	r20, r13
     b78:	50 e0       	ldi	r21, 0x00	; 0
     b7a:	d0 92 72 50 	sts	0x5072, r13	; 0x805072 <ram+0x5e>
     b7e:	c0 92 71 50 	sts	0x5071, r12	; 0x805071 <ram+0x5d>
     b82:	54 2f       	mov	r21, r20
     b84:	44 27       	eor	r20, r20
     b86:	4c 29       	or	r20, r12
     b88:	fa 01       	movw	r30, r20
     b8a:	ec 5e       	subi	r30, 0xEC	; 236
     b8c:	ff 4a       	sbci	r31, 0xAF	; 175
     b8e:	b0 83       	st	Z, r27
     b90:	40 91 71 50 	lds	r20, 0x5071	; 0x805071 <ram+0x5d>
     b94:	50 91 72 50 	lds	r21, 0x5072	; 0x805072 <ram+0x5e>
     b98:	05 2e       	mov	r0, r21
     b9a:	00 0c       	add	r0, r0
     b9c:	66 0b       	sbc	r22, r22
     b9e:	77 0b       	sbc	r23, r23
     ba0:	41 50       	subi	r20, 0x01	; 1
     ba2:	51 09       	sbc	r21, r1
     ba4:	61 09       	sbc	r22, r1
     ba6:	71 09       	sbc	r23, r1
     ba8:	50 93 72 50 	sts	0x5072, r21	; 0x805072 <ram+0x5e>
     bac:	40 93 71 50 	sts	0x5071, r20	; 0x805071 <ram+0x5d>
     bb0:	93 fd       	sbrc	r25, 3
     bb2:	02 c0       	rjmp	.+4      	; 0xbb8 <fetch+0x62a>
     bb4:	0c 94 58 1a 	jmp	0x34b0	; 0x34b0 <fetch+0x2f22>
     bb8:	2e 5f       	subi	r18, 0xFE	; 254
     bba:	3f 40       	sbci	r19, 0x0F	; 15
     bbc:	18 e0       	ldi	r17, 0x08	; 8
     bbe:	91 27       	eor	r25, r17
     bc0:	88 0f       	add	r24, r24
     bc2:	99 1f       	adc	r25, r25
     bc4:	28 0f       	add	r18, r24
     bc6:	39 1f       	adc	r19, r25
     bc8:	20 93 10 50 	sts	0x5010, r18	; 0x805010 <PC>
     bcc:	30 93 11 50 	sts	0x5011, r19	; 0x805011 <PC+0x1>
     bd0:	23 e0       	ldi	r18, 0x03	; 3
     bd2:	82 0e       	add	r8, r18
     bd4:	91 1c       	adc	r9, r1
     bd6:	a1 1c       	adc	r10, r1
     bd8:	b1 1c       	adc	r11, r1
     bda:	80 92 14 93 	sts	0x9314, r8	; 0x809314 <totalcycles>
     bde:	90 92 15 93 	sts	0x9315, r9	; 0x809315 <totalcycles+0x1>
     be2:	a0 92 16 93 	sts	0x9316, r10	; 0x809316 <totalcycles+0x2>
     be6:	b0 92 17 93 	sts	0x9317, r11	; 0x809317 <totalcycles+0x3>
     bea:	e2 e0       	ldi	r30, 0x02	; 2
     bec:	92 e0       	ldi	r25, 0x02	; 2
     bee:	ba cd       	rjmp	.-1164   	; 0x764 <fetch+0x1d6>
     bf0:	11 96       	adiw	r26, 0x01	; 1
     bf2:	8c 91       	ld	r24, X
     bf4:	e9 2f       	mov	r30, r25
     bf6:	e7 70       	andi	r30, 0x07	; 7
     bf8:	f0 e0       	ldi	r31, 0x00	; 0
     bfa:	f5 95       	asr	r31
     bfc:	e7 95       	ror	r30
     bfe:	e2 95       	swap	r30
     c00:	f2 95       	swap	r31
     c02:	f0 7f       	andi	r31, 0xF0	; 240
     c04:	fe 27       	eor	r31, r30
     c06:	e0 7f       	andi	r30, 0xF0	; 240
     c08:	fe 27       	eor	r31, r30
     c0a:	48 2f       	mov	r20, r24
     c0c:	4f 70       	andi	r20, 0x0F	; 15
     c0e:	e4 2b       	or	r30, r20
     c10:	40 a1       	ldd	r20, Z+32	; 0x20
     c12:	91 70       	andi	r25, 0x01	; 1
     c14:	9d a7       	std	Y+45, r25	; 0x2d
     c16:	1e a6       	std	Y+46, r1	; 0x2e
     c18:	ed a5       	ldd	r30, Y+45	; 0x2d
     c1a:	fe a5       	ldd	r31, Y+46	; 0x2e
     c1c:	e2 95       	swap	r30
     c1e:	f2 95       	swap	r31
     c20:	f0 7f       	andi	r31, 0xF0	; 240
     c22:	fe 27       	eor	r31, r30
     c24:	e0 7f       	andi	r30, 0xF0	; 240
     c26:	fe 27       	eor	r31, r30
     c28:	82 95       	swap	r24
     c2a:	8f 70       	andi	r24, 0x0F	; 15
     c2c:	e8 2b       	or	r30, r24
     c2e:	ec 5e       	subi	r30, 0xEC	; 236
     c30:	ff 4a       	sbci	r31, 0xAF	; 175
     c32:	40 83       	st	Z, r20
     c34:	c3 ce       	rjmp	.-634    	; 0x9bc <fetch+0x42e>
     c36:	11 96       	adiw	r26, 0x01	; 1
     c38:	8c 91       	ld	r24, X
     c3a:	9f 3c       	cpi	r25, 0xCF	; 207
     c3c:	11 f4       	brne	.+4      	; 0xc42 <fetch+0x6b4>
     c3e:	0c 94 9f 1c 	jmp	0x393e	; 0x393e <fetch+0x33b0>
     c42:	49 2f       	mov	r20, r25
     c44:	4f 70       	andi	r20, 0x0F	; 15
     c46:	90 e0       	ldi	r25, 0x00	; 0
     c48:	94 2b       	or	r25, r20
     c4a:	80 93 12 50 	sts	0x5012, r24	; 0x805012 <result>
     c4e:	90 93 13 50 	sts	0x5013, r25	; 0x805013 <result+0x1>
     c52:	e2 e0       	ldi	r30, 0x02	; 2
     c54:	8e 0e       	add	r8, r30
     c56:	91 1c       	adc	r9, r1
     c58:	a1 1c       	adc	r10, r1
     c5a:	b1 1c       	adc	r11, r1
     c5c:	80 92 14 93 	sts	0x9314, r8	; 0x809314 <totalcycles>
     c60:	90 92 15 93 	sts	0x9315, r9	; 0x809315 <totalcycles+0x1>
     c64:	a0 92 16 93 	sts	0x9316, r10	; 0x809316 <totalcycles+0x2>
     c68:	b0 92 17 93 	sts	0x9317, r11	; 0x809317 <totalcycles+0x3>
     c6c:	93 fd       	sbrc	r25, 3
     c6e:	02 c0       	rjmp	.+4      	; 0xc74 <fetch+0x6e6>
     c70:	0c 94 50 1c 	jmp	0x38a0	; 0x38a0 <fetch+0x3312>
     c74:	2e 5f       	subi	r18, 0xFE	; 254
     c76:	3f 40       	sbci	r19, 0x0F	; 15
     c78:	f8 e0       	ldi	r31, 0x08	; 8
     c7a:	9f 27       	eor	r25, r31
     c7c:	88 0f       	add	r24, r24
     c7e:	99 1f       	adc	r25, r25
     c80:	28 0f       	add	r18, r24
     c82:	39 1f       	adc	r19, r25
     c84:	9d ce       	rjmp	.-710    	; 0x9c0 <fetch+0x432>
     c86:	11 96       	adiw	r26, 0x01	; 1
     c88:	8c 91       	ld	r24, X
     c8a:	b9 2f       	mov	r27, r25
     c8c:	b1 70       	andi	r27, 0x01	; 1
     c8e:	bf a7       	std	Y+47, r27	; 0x2f
     c90:	18 aa       	std	Y+48, r1	; 0x30
     c92:	ef a5       	ldd	r30, Y+47	; 0x2f
     c94:	f8 a9       	ldd	r31, Y+48	; 0x30
     c96:	e2 95       	swap	r30
     c98:	f2 95       	swap	r31
     c9a:	f0 7f       	andi	r31, 0xF0	; 240
     c9c:	fe 27       	eor	r31, r30
     c9e:	e0 7f       	andi	r30, 0xF0	; 240
     ca0:	fe 27       	eor	r31, r30
     ca2:	28 2f       	mov	r18, r24
     ca4:	22 95       	swap	r18
     ca6:	2f 70       	andi	r18, 0x0F	; 15
     ca8:	e2 2b       	or	r30, r18
     caa:	ec 5e       	subi	r30, 0xEC	; 236
     cac:	ff 4a       	sbci	r31, 0xAF	; 175
     cae:	20 81       	ld	r18, Z
     cb0:	97 70       	andi	r25, 0x07	; 7
     cb2:	e9 2f       	mov	r30, r25
     cb4:	f0 e0       	ldi	r31, 0x00	; 0
     cb6:	f5 95       	asr	r31
     cb8:	e7 95       	ror	r30
     cba:	e2 95       	swap	r30
     cbc:	f2 95       	swap	r31
     cbe:	f0 7f       	andi	r31, 0xF0	; 240
     cc0:	fe 27       	eor	r31, r30
     cc2:	e0 7f       	andi	r30, 0xF0	; 240
     cc4:	fe 27       	eor	r31, r30
     cc6:	8f 70       	andi	r24, 0x0F	; 15
     cc8:	e8 2b       	or	r30, r24
     cca:	20 a3       	std	Z+32, r18	; 0x20
     ccc:	80 91 10 50 	lds	r24, 0x5010	; 0x805010 <PC>
     cd0:	90 91 11 50 	lds	r25, 0x5011	; 0x805011 <PC+0x1>
     cd4:	02 96       	adiw	r24, 0x02	; 2
     cd6:	80 93 10 50 	sts	0x5010, r24	; 0x805010 <PC>
     cda:	90 93 11 50 	sts	0x5011, r25	; 0x805011 <PC+0x1>
     cde:	20 91 0b 40 	lds	r18, 0x400B	; 0x80400b <newStatus+0x1>
     ce2:	32 2f       	mov	r19, r18
     ce4:	33 1f       	adc	r19, r19
     ce6:	33 27       	eor	r19, r19
     ce8:	33 1f       	adc	r19, r19
     cea:	80 91 0c 40 	lds	r24, 0x400C	; 0x80400c <newStatus+0x2>
     cee:	83 70       	andi	r24, 0x03	; 3
     cf0:	88 0f       	add	r24, r24
     cf2:	83 2b       	or	r24, r19
     cf4:	82 95       	swap	r24
     cf6:	88 0f       	add	r24, r24
     cf8:	80 7e       	andi	r24, 0xE0	; 224
     cfa:	98 2f       	mov	r25, r24
     cfc:	95 95       	asr	r25
     cfe:	95 95       	asr	r25
     d00:	95 95       	asr	r25
     d02:	95 95       	asr	r25
     d04:	95 95       	asr	r25
     d06:	e0 91 0a 40 	lds	r30, 0x400A	; 0x80400a <newStatus>
     d0a:	8e 2f       	mov	r24, r30
     d0c:	82 95       	swap	r24
     d0e:	86 95       	lsr	r24
     d10:	86 95       	lsr	r24
     d12:	83 70       	andi	r24, 0x03	; 3
     d14:	e2 2f       	mov	r30, r18
     d16:	e1 70       	andi	r30, 0x01	; 1
     d18:	ee 0f       	add	r30, r30
     d1a:	ee 0f       	add	r30, r30
     d1c:	e8 2b       	or	r30, r24
     d1e:	e2 95       	swap	r30
     d20:	ee 0f       	add	r30, r30
     d22:	e0 7e       	andi	r30, 0xE0	; 224
     d24:	e5 95       	asr	r30
     d26:	e5 95       	asr	r30
     d28:	e5 95       	asr	r30
     d2a:	e5 95       	asr	r30
     d2c:	e5 95       	asr	r30
     d2e:	1a cd       	rjmp	.-1484   	; 0x764 <fetch+0x1d6>
     d30:	11 96       	adiw	r26, 0x01	; 1
     d32:	8c 91       	ld	r24, X
     d34:	48 2f       	mov	r20, r24
     d36:	4f 70       	andi	r20, 0x0F	; 15
     d38:	48 30       	cpi	r20, 0x08	; 8
     d3a:	10 f0       	brcs	.+4      	; 0xd40 <fetch+0x7b2>
     d3c:	0c 94 62 1a 	jmp	0x34c4	; 0x34c4 <fetch+0x2f36>
     d40:	19 2f       	mov	r17, r25
     d42:	11 70       	andi	r17, 0x01	; 1
     d44:	66 96       	adiw	r28, 0x16	; 22
     d46:	1f af       	std	Y+63, r17	; 0x3f
     d48:	66 97       	sbiw	r28, 0x16	; 22
     d4a:	67 96       	adiw	r28, 0x17	; 23
     d4c:	1f ae       	std	Y+63, r1	; 0x3f
     d4e:	67 97       	sbiw	r28, 0x17	; 23
     d50:	67 96       	adiw	r28, 0x17	; 23
     d52:	4e ad       	ldd	r20, Y+62	; 0x3e
     d54:	5f ad       	ldd	r21, Y+63	; 0x3f
     d56:	67 97       	sbiw	r28, 0x17	; 23
     d58:	42 95       	swap	r20
     d5a:	52 95       	swap	r21
     d5c:	50 7f       	andi	r21, 0xF0	; 240
     d5e:	54 27       	eor	r21, r20
     d60:	40 7f       	andi	r20, 0xF0	; 240
     d62:	54 27       	eor	r21, r20
     d64:	68 2f       	mov	r22, r24
     d66:	62 95       	swap	r22
     d68:	6f 70       	andi	r22, 0x0F	; 15
     d6a:	46 2b       	or	r20, r22
     d6c:	40 93 12 50 	sts	0x5012, r20	; 0x805012 <result>
     d70:	50 93 13 50 	sts	0x5013, r21	; 0x805013 <result+0x1>
     d74:	9c 70       	andi	r25, 0x0C	; 12
     d76:	69 2f       	mov	r22, r25
     d78:	70 e0       	ldi	r23, 0x00	; 0
     d7a:	66 0f       	add	r22, r22
     d7c:	77 1f       	adc	r23, r23
     d7e:	87 70       	andi	r24, 0x07	; 7
     d80:	db 01       	movw	r26, r22
     d82:	a8 2b       	or	r26, r24
     d84:	cd 01       	movw	r24, r26
     d86:	80 62       	ori	r24, 0x20	; 32
     d88:	e0 91 32 50 	lds	r30, 0x5032	; 0x805032 <ram+0x1e>
     d8c:	f0 91 33 50 	lds	r31, 0x5033	; 0x805033 <ram+0x1f>
     d90:	e8 0f       	add	r30, r24
     d92:	f9 1f       	adc	r31, r25
     d94:	4f 01       	movw	r8, r30
     d96:	0f 2e       	mov	r0, r31
     d98:	00 0c       	add	r0, r0
     d9a:	aa 08       	sbc	r10, r10
     d9c:	bb 08       	sbc	r11, r11
     d9e:	24 01       	movw	r4, r8
     da0:	35 01       	movw	r6, r10
     da2:	bf ef       	ldi	r27, 0xFF	; 255
     da4:	4b 1a       	sub	r4, r27
     da6:	bf e1       	ldi	r27, 0x1F	; 31
     da8:	5b 0a       	sbc	r5, r27
     daa:	61 08       	sbc	r6, r1
     dac:	71 08       	sbc	r7, r1
     dae:	a0 e5       	ldi	r26, 0x50	; 80
     db0:	ca 2e       	mov	r12, r26
     db2:	a0 e4       	ldi	r26, 0x40	; 64
     db4:	da 2e       	mov	r13, r26
     db6:	e1 2c       	mov	r14, r1
     db8:	f1 2c       	mov	r15, r1
     dba:	c8 18       	sub	r12, r8
     dbc:	d9 08       	sbc	r13, r9
     dbe:	ea 08       	sbc	r14, r10
     dc0:	fb 08       	sbc	r15, r11
     dc2:	c4 14       	cp	r12, r4
     dc4:	d5 04       	cpc	r13, r5
     dc6:	e6 04       	cpc	r14, r6
     dc8:	f7 04       	cpc	r15, r7
     dca:	14 f4       	brge	.+4      	; 0xdd0 <fetch+0x842>
     dcc:	ec 5e       	subi	r30, 0xEC	; 236
     dce:	ff 4a       	sbci	r31, 0xAF	; 175
     dd0:	80 81       	ld	r24, Z
     dd2:	fa 01       	movw	r30, r20
     dd4:	ec 5e       	subi	r30, 0xEC	; 236
     dd6:	ff 4a       	sbci	r31, 0xAF	; 175
     dd8:	80 83       	st	Z, r24
     dda:	2e 5f       	subi	r18, 0xFE	; 254
     ddc:	3f 4f       	sbci	r19, 0xFF	; 255
     dde:	20 93 10 50 	sts	0x5010, r18	; 0x805010 <PC>
     de2:	30 93 11 50 	sts	0x5011, r19	; 0x805011 <PC+0x1>
     de6:	e2 e0       	ldi	r30, 0x02	; 2
     de8:	92 e0       	ldi	r25, 0x02	; 2
     dea:	bc cc       	rjmp	.-1672   	; 0x764 <fetch+0x1d6>
     dec:	11 96       	adiw	r26, 0x01	; 1
     dee:	4c 91       	ld	r20, X
     df0:	09 2f       	mov	r16, r25
     df2:	01 70       	andi	r16, 0x01	; 1
     df4:	09 a7       	std	Y+41, r16	; 0x29
     df6:	1a a6       	std	Y+42, r1	; 0x2a
     df8:	e9 a5       	ldd	r30, Y+41	; 0x29
     dfa:	fa a5       	ldd	r31, Y+42	; 0x2a
     dfc:	e2 95       	swap	r30
     dfe:	f2 95       	swap	r31
     e00:	f0 7f       	andi	r31, 0xF0	; 240
     e02:	fe 27       	eor	r31, r30
     e04:	e0 7f       	andi	r30, 0xF0	; 240
     e06:	fe 27       	eor	r31, r30
     e08:	84 2f       	mov	r24, r20
     e0a:	82 95       	swap	r24
     e0c:	8f 70       	andi	r24, 0x0F	; 15
     e0e:	e8 2b       	or	r30, r24
     e10:	ec 5e       	subi	r30, 0xEC	; 236
     e12:	ff 4a       	sbci	r31, 0xAF	; 175
     e14:	80 81       	ld	r24, Z
     e16:	96 95       	lsr	r25
     e18:	91 70       	andi	r25, 0x01	; 1
     e1a:	9b a7       	std	Y+43, r25	; 0x2b
     e1c:	1c a6       	std	Y+44, r1	; 0x2c
     e1e:	eb a5       	ldd	r30, Y+43	; 0x2b
     e20:	fc a5       	ldd	r31, Y+44	; 0x2c
     e22:	e2 95       	swap	r30
     e24:	f2 95       	swap	r31
     e26:	f0 7f       	andi	r31, 0xF0	; 240
     e28:	fe 27       	eor	r31, r30
     e2a:	e0 7f       	andi	r30, 0xF0	; 240
     e2c:	fe 27       	eor	r31, r30
     e2e:	4f 70       	andi	r20, 0x0F	; 15
     e30:	e4 2b       	or	r30, r20
     e32:	ec 5e       	subi	r30, 0xEC	; 236
     e34:	ff 4a       	sbci	r31, 0xAF	; 175
     e36:	90 81       	ld	r25, Z
     e38:	89 9f       	mul	r24, r25
     e3a:	c0 01       	movw	r24, r0
     e3c:	11 24       	eor	r1, r1
     e3e:	80 93 12 50 	sts	0x5012, r24	; 0x805012 <result>
     e42:	90 93 13 50 	sts	0x5013, r25	; 0x805013 <result+0x1>
     e46:	41 e0       	ldi	r20, 0x01	; 1
     e48:	00 97       	sbiw	r24, 0x00	; 0
     e4a:	09 f0       	breq	.+2      	; 0xe4e <fetch+0x8c0>
     e4c:	40 e0       	ldi	r20, 0x00	; 0
     e4e:	44 0f       	add	r20, r20
     e50:	44 0f       	add	r20, r20
     e52:	50 91 0c 40 	lds	r21, 0x400C	; 0x80400c <newStatus+0x2>
     e56:	53 70       	andi	r21, 0x03	; 3
     e58:	45 2b       	or	r20, r21
     e5a:	40 93 0c 40 	sts	0x400C, r20	; 0x80400c <newStatus+0x2>
     e5e:	90 93 15 50 	sts	0x5015, r25	; 0x805015 <ram+0x1>
     e62:	80 93 14 50 	sts	0x5014, r24	; 0x805014 <ram>
     e66:	2e 5f       	subi	r18, 0xFE	; 254
     e68:	3f 4f       	sbci	r19, 0xFF	; 255
     e6a:	20 93 10 50 	sts	0x5010, r18	; 0x805010 <PC>
     e6e:	30 93 11 50 	sts	0x5011, r19	; 0x805011 <PC+0x1>
     e72:	e2 e0       	ldi	r30, 0x02	; 2
     e74:	92 e0       	ldi	r25, 0x02	; 2
     e76:	76 cc       	rjmp	.-1812   	; 0x764 <fetch+0x1d6>
     e78:	11 96       	adiw	r26, 0x01	; 1
     e7a:	4c 91       	ld	r20, X
     e7c:	84 2f       	mov	r24, r20
     e7e:	8f 70       	andi	r24, 0x0F	; 15
     e80:	88 30       	cpi	r24, 0x08	; 8
     e82:	10 f0       	brcs	.+4      	; 0xe88 <fetch+0x8fa>
     e84:	0c 94 d5 1b 	jmp	0x37aa	; 0x37aa <fetch+0x321c>
     e88:	19 2f       	mov	r17, r25
     e8a:	11 70       	andi	r17, 0x01	; 1
     e8c:	6a 96       	adiw	r28, 0x1a	; 26
     e8e:	1f af       	std	Y+63, r17	; 0x3f
     e90:	6a 97       	sbiw	r28, 0x1a	; 26
     e92:	6b 96       	adiw	r28, 0x1b	; 27
     e94:	1f ae       	std	Y+63, r1	; 0x3f
     e96:	6b 97       	sbiw	r28, 0x1b	; 27
     e98:	6b 96       	adiw	r28, 0x1b	; 27
     e9a:	ee ad       	ldd	r30, Y+62	; 0x3e
     e9c:	ff ad       	ldd	r31, Y+63	; 0x3f
     e9e:	6b 97       	sbiw	r28, 0x1b	; 27
     ea0:	e2 95       	swap	r30
     ea2:	f2 95       	swap	r31
     ea4:	f0 7f       	andi	r31, 0xF0	; 240
     ea6:	fe 27       	eor	r31, r30
     ea8:	e0 7f       	andi	r30, 0xF0	; 240
     eaa:	fe 27       	eor	r31, r30
     eac:	84 2f       	mov	r24, r20
     eae:	82 95       	swap	r24
     eb0:	8f 70       	andi	r24, 0x0F	; 15
     eb2:	e8 2b       	or	r30, r24
     eb4:	ec 5e       	subi	r30, 0xEC	; 236
     eb6:	ff 4a       	sbci	r31, 0xAF	; 175
     eb8:	20 81       	ld	r18, Z
     eba:	62 2f       	mov	r22, r18
     ebc:	70 e0       	ldi	r23, 0x00	; 0
     ebe:	60 93 12 50 	sts	0x5012, r22	; 0x805012 <result>
     ec2:	70 93 13 50 	sts	0x5013, r23	; 0x805013 <result+0x1>
     ec6:	9c 70       	andi	r25, 0x0C	; 12
     ec8:	89 2f       	mov	r24, r25
     eca:	90 e0       	ldi	r25, 0x00	; 0
     ecc:	88 0f       	add	r24, r24
     ece:	99 1f       	adc	r25, r25
     ed0:	47 70       	andi	r20, 0x07	; 7
     ed2:	84 2b       	or	r24, r20
     ed4:	80 62       	ori	r24, 0x20	; 32
     ed6:	e0 91 32 50 	lds	r30, 0x5032	; 0x805032 <ram+0x1e>
     eda:	f0 91 33 50 	lds	r31, 0x5033	; 0x805033 <ram+0x1f>
     ede:	e8 0f       	add	r30, r24
     ee0:	f9 1f       	adc	r31, r25
     ee2:	6f 01       	movw	r12, r30
     ee4:	0f 2e       	mov	r0, r31
     ee6:	00 0c       	add	r0, r0
     ee8:	ee 08       	sbc	r14, r14
     eea:	ff 08       	sbc	r15, r15
     eec:	46 01       	movw	r8, r12
     eee:	57 01       	movw	r10, r14
     ef0:	3f ef       	ldi	r19, 0xFF	; 255
     ef2:	83 1a       	sub	r8, r19
     ef4:	3f e1       	ldi	r19, 0x1F	; 31
     ef6:	93 0a       	sbc	r9, r19
     ef8:	a1 08       	sbc	r10, r1
     efa:	b1 08       	sbc	r11, r1
     efc:	40 e5       	ldi	r20, 0x50	; 80
     efe:	50 e4       	ldi	r21, 0x40	; 64
     f00:	60 e0       	ldi	r22, 0x00	; 0
     f02:	70 e0       	ldi	r23, 0x00	; 0
     f04:	4c 19       	sub	r20, r12
     f06:	5d 09       	sbc	r21, r13
     f08:	6e 09       	sbc	r22, r14
     f0a:	7f 09       	sbc	r23, r15
     f0c:	48 15       	cp	r20, r8
     f0e:	59 05       	cpc	r21, r9
     f10:	6a 05       	cpc	r22, r10
     f12:	7b 05       	cpc	r23, r11
     f14:	14 f4       	brge	.+4      	; 0xf1a <fetch+0x98c>
     f16:	0c 94 07 1d 	jmp	0x3a0e	; 0x3a0e <fetch+0x3480>
     f1a:	20 83       	st	Z, r18
     f1c:	40 91 10 50 	lds	r20, 0x5010	; 0x805010 <PC>
     f20:	50 91 11 50 	lds	r21, 0x5011	; 0x805011 <PC+0x1>
     f24:	20 91 0b 40 	lds	r18, 0x400B	; 0x80400b <newStatus+0x1>
     f28:	92 2f       	mov	r25, r18
     f2a:	99 1f       	adc	r25, r25
     f2c:	99 27       	eor	r25, r25
     f2e:	99 1f       	adc	r25, r25
     f30:	80 91 0c 40 	lds	r24, 0x400C	; 0x80400c <newStatus+0x2>
     f34:	83 70       	andi	r24, 0x03	; 3
     f36:	88 0f       	add	r24, r24
     f38:	89 2b       	or	r24, r25
     f3a:	82 95       	swap	r24
     f3c:	88 0f       	add	r24, r24
     f3e:	80 7e       	andi	r24, 0xE0	; 224
     f40:	98 2f       	mov	r25, r24
     f42:	95 95       	asr	r25
     f44:	95 95       	asr	r25
     f46:	95 95       	asr	r25
     f48:	95 95       	asr	r25
     f4a:	95 95       	asr	r25
     f4c:	e0 91 0a 40 	lds	r30, 0x400A	; 0x80400a <newStatus>
     f50:	8e 2f       	mov	r24, r30
     f52:	82 95       	swap	r24
     f54:	86 95       	lsr	r24
     f56:	86 95       	lsr	r24
     f58:	83 70       	andi	r24, 0x03	; 3
     f5a:	e2 2f       	mov	r30, r18
     f5c:	e1 70       	andi	r30, 0x01	; 1
     f5e:	ee 0f       	add	r30, r30
     f60:	ee 0f       	add	r30, r30
     f62:	e8 2b       	or	r30, r24
     f64:	e2 95       	swap	r30
     f66:	ee 0f       	add	r30, r30
     f68:	e0 7e       	andi	r30, 0xE0	; 224
     f6a:	e5 95       	asr	r30
     f6c:	e5 95       	asr	r30
     f6e:	e5 95       	asr	r30
     f70:	e5 95       	asr	r30
     f72:	e5 95       	asr	r30
     f74:	8a 01       	movw	r16, r20
     f76:	0e 5f       	subi	r16, 0xFE	; 254
     f78:	1f 4f       	sbci	r17, 0xFF	; 255
     f7a:	00 93 10 50 	sts	0x5010, r16	; 0x805010 <PC>
     f7e:	10 93 11 50 	sts	0x5011, r17	; 0x805011 <PC+0x1>
     f82:	f0 cb       	rjmp	.-2080   	; 0x764 <fetch+0x1d6>
     f84:	11 96       	adiw	r26, 0x01	; 1
     f86:	4c 91       	ld	r20, X
     f88:	11 97       	sbiw	r26, 0x01	; 1
     f8a:	e4 2f       	mov	r30, r20
     f8c:	e6 95       	lsr	r30
     f8e:	e6 95       	lsr	r30
     f90:	e6 95       	lsr	r30
     f92:	f0 e0       	ldi	r31, 0x00	; 0
     f94:	ec 5e       	subi	r30, 0xEC	; 236
     f96:	ff 4a       	sbci	r31, 0xAF	; 175
     f98:	80 a1       	ldd	r24, Z+32	; 0x20
     f9a:	90 e0       	ldi	r25, 0x00	; 0
     f9c:	80 93 12 50 	sts	0x5012, r24	; 0x805012 <result>
     fa0:	90 93 13 50 	sts	0x5013, r25	; 0x805013 <result+0x1>
     fa4:	47 70       	andi	r20, 0x07	; 7
     fa6:	61 e0       	ldi	r22, 0x01	; 1
     fa8:	70 e0       	ldi	r23, 0x00	; 0
     faa:	6b 01       	movw	r12, r22
     fac:	02 c0       	rjmp	.+4      	; 0xfb2 <fetch+0xa24>
     fae:	cc 0c       	add	r12, r12
     fb0:	dd 1c       	adc	r13, r13
     fb2:	4a 95       	dec	r20
     fb4:	e2 f7       	brpl	.-8      	; 0xfae <fetch+0xa20>
     fb6:	8c 21       	and	r24, r12
     fb8:	9d 21       	and	r25, r13
     fba:	89 2b       	or	r24, r25
     fbc:	09 f4       	brne	.+2      	; 0xfc0 <fetch+0xa32>
     fbe:	c4 cb       	rjmp	.-2168   	; 0x748 <fetch+0x1ba>
     fc0:	89 01       	movw	r16, r18
     fc2:	0e 5f       	subi	r16, 0xFE	; 254
     fc4:	1f 4f       	sbci	r17, 0xFF	; 255
     fc6:	b5 01       	movw	r22, r10
     fc8:	a4 01       	movw	r20, r8
     fca:	4e 5f       	subi	r20, 0xFE	; 254
     fcc:	5f 4f       	sbci	r21, 0xFF	; 255
     fce:	6f 4f       	sbci	r22, 0xFF	; 255
     fd0:	7f 4f       	sbci	r23, 0xFF	; 255
     fd2:	40 93 14 93 	sts	0x9314, r20	; 0x809314 <totalcycles>
     fd6:	50 93 15 93 	sts	0x9315, r21	; 0x809315 <totalcycles+0x1>
     fda:	60 93 16 93 	sts	0x9316, r22	; 0x809316 <totalcycles+0x2>
     fde:	70 93 17 93 	sts	0x9317, r23	; 0x809317 <totalcycles+0x3>
     fe2:	13 96       	adiw	r26, 0x03	; 3
     fe4:	9c 91       	ld	r25, X
     fe6:	f8 01       	movw	r30, r16
     fe8:	e3 5f       	subi	r30, 0xF3	; 243
     fea:	ff 4b       	sbci	r31, 0xBF	; 191
     fec:	80 81       	ld	r24, Z
     fee:	84 39       	cpi	r24, 0x94	; 148
     ff0:	10 f0       	brcs	.+4      	; 0xff6 <fetch+0xa68>
     ff2:	0c 94 5b 1e 	jmp	0x3cb6	; 0x3cb6 <fetch+0x3728>
     ff6:	82 39       	cpi	r24, 0x92	; 146
     ff8:	18 f4       	brcc	.+6      	; 0x1000 <fetch+0xa72>
     ffa:	80 39       	cpi	r24, 0x90	; 144
     ffc:	08 f4       	brcc	.+2      	; 0x1000 <fetch+0xa72>
     ffe:	9e cb       	rjmp	.-2244   	; 0x73c <fetch+0x1ae>
    1000:	9f 70       	andi	r25, 0x0F	; 15
    1002:	09 f0       	breq	.+2      	; 0x1006 <fetch+0xa78>
    1004:	9b cb       	rjmp	.-2250   	; 0x73c <fetch+0x1ae>
    1006:	a9 01       	movw	r20, r18
    1008:	4c 5f       	subi	r20, 0xFC	; 252
    100a:	5f 4f       	sbci	r21, 0xFF	; 255
    100c:	c9 56       	subi	r28, 0x69	; 105
    100e:	df 4f       	sbci	r29, 0xFF	; 255
    1010:	48 83       	st	Y, r20
    1012:	59 83       	std	Y+1, r21	; 0x01
    1014:	c7 59       	subi	r28, 0x97	; 151
    1016:	d0 40       	sbci	r29, 0x00	; 0
    1018:	53 e0       	ldi	r21, 0x03	; 3
    101a:	85 0e       	add	r8, r21
    101c:	91 1c       	adc	r9, r1
    101e:	a1 1c       	adc	r10, r1
    1020:	b1 1c       	adc	r11, r1
    1022:	80 92 14 93 	sts	0x9314, r8	; 0x809314 <totalcycles>
    1026:	90 92 15 93 	sts	0x9315, r9	; 0x809315 <totalcycles+0x1>
    102a:	a0 92 16 93 	sts	0x9316, r10	; 0x809316 <totalcycles+0x2>
    102e:	b0 92 17 93 	sts	0x9317, r11	; 0x809317 <totalcycles+0x3>
    1032:	8a cb       	rjmp	.-2284   	; 0x748 <fetch+0x1ba>
    1034:	11 96       	adiw	r26, 0x01	; 1
    1036:	ec 91       	ld	r30, X
    1038:	4e 2f       	mov	r20, r30
    103a:	47 70       	andi	r20, 0x07	; 7
    103c:	81 e0       	ldi	r24, 0x01	; 1
    103e:	90 e0       	ldi	r25, 0x00	; 0
    1040:	02 c0       	rjmp	.+4      	; 0x1046 <fetch+0xab8>
    1042:	88 0f       	add	r24, r24
    1044:	99 1f       	adc	r25, r25
    1046:	4a 95       	dec	r20
    1048:	e2 f7       	brpl	.-8      	; 0x1042 <fetch+0xab4>
    104a:	80 93 12 50 	sts	0x5012, r24	; 0x805012 <result>
    104e:	90 93 13 50 	sts	0x5013, r25	; 0x805013 <result+0x1>
    1052:	e6 95       	lsr	r30
    1054:	e6 95       	lsr	r30
    1056:	e6 95       	lsr	r30
    1058:	f0 e0       	ldi	r31, 0x00	; 0
    105a:	ec 5c       	subi	r30, 0xCC	; 204
    105c:	ff 4a       	sbci	r31, 0xAF	; 175
    105e:	90 81       	ld	r25, Z
    1060:	89 2b       	or	r24, r25
    1062:	80 83       	st	Z, r24
    1064:	2e 5f       	subi	r18, 0xFE	; 254
    1066:	3f 4f       	sbci	r19, 0xFF	; 255
    1068:	20 93 10 50 	sts	0x5010, r18	; 0x805010 <PC>
    106c:	30 93 11 50 	sts	0x5011, r19	; 0x805011 <PC+0x1>
    1070:	e2 e0       	ldi	r30, 0x02	; 2
    1072:	8e 0e       	add	r8, r30
    1074:	91 1c       	adc	r9, r1
    1076:	a1 1c       	adc	r10, r1
    1078:	b1 1c       	adc	r11, r1
    107a:	80 92 14 93 	sts	0x9314, r8	; 0x809314 <totalcycles>
    107e:	90 92 15 93 	sts	0x9315, r9	; 0x809315 <totalcycles+0x1>
    1082:	a0 92 16 93 	sts	0x9316, r10	; 0x809316 <totalcycles+0x2>
    1086:	b0 92 17 93 	sts	0x9317, r11	; 0x809317 <totalcycles+0x3>
    108a:	e2 e0       	ldi	r30, 0x02	; 2
    108c:	92 e0       	ldi	r25, 0x02	; 2
    108e:	6a cb       	rjmp	.-2348   	; 0x764 <fetch+0x1d6>
    1090:	11 96       	adiw	r26, 0x01	; 1
    1092:	ac 91       	ld	r26, X
    1094:	00 e1       	ldi	r16, 0x10	; 16
    1096:	90 9f       	mul	r25, r16
    1098:	c0 01       	movw	r24, r0
    109a:	11 24       	eor	r1, r1
    109c:	99 27       	eor	r25, r25
    109e:	4a 2f       	mov	r20, r26
    10a0:	4f 70       	andi	r20, 0x0F	; 15
    10a2:	84 2b       	or	r24, r20
    10a4:	a2 95       	swap	r26
    10a6:	af 70       	andi	r26, 0x0F	; 15
    10a8:	b0 e0       	ldi	r27, 0x00	; 0
    10aa:	ac 5d       	subi	r26, 0xDC	; 220
    10ac:	bf 4a       	sbci	r27, 0xAF	; 175
    10ae:	4c 91       	ld	r20, X
    10b0:	83 fb       	bst	r24, 3
    10b2:	77 27       	eor	r23, r23
    10b4:	70 f9       	bld	r23, 0
    10b6:	64 2f       	mov	r22, r20
    10b8:	68 1b       	sub	r22, r24
    10ba:	63 fb       	bst	r22, 3
    10bc:	55 27       	eor	r21, r21
    10be:	50 f9       	bld	r21, 0
    10c0:	43 fb       	bst	r20, 3
    10c2:	ee 27       	eor	r30, r30
    10c4:	e0 f9       	bld	r30, 0
    10c6:	61 e0       	ldi	r22, 0x01	; 1
    10c8:	6e 27       	eor	r22, r30
    10ca:	e5 2f       	mov	r30, r21
    10cc:	e7 2b       	or	r30, r23
    10ce:	6e 23       	and	r22, r30
    10d0:	57 23       	and	r21, r23
    10d2:	e6 2f       	mov	r30, r22
    10d4:	e5 2b       	or	r30, r21
    10d6:	6e 2f       	mov	r22, r30
    10d8:	62 95       	swap	r22
    10da:	66 0f       	add	r22, r22
    10dc:	66 0f       	add	r22, r22
    10de:	60 7c       	andi	r22, 0xC0	; 192
    10e0:	50 91 0a 40 	lds	r21, 0x400A	; 0x80400a <newStatus>
    10e4:	5f 73       	andi	r21, 0x3F	; 63
    10e6:	56 2b       	or	r21, r22
    10e8:	50 93 0a 40 	sts	0x400A, r21	; 0x80400a <newStatus>
    10ec:	50 91 0b 40 	lds	r21, 0x400B	; 0x80400b <newStatus+0x1>
    10f0:	5e 7f       	andi	r21, 0xFE	; 254
    10f2:	50 93 0b 40 	sts	0x400B, r21	; 0x80400b <newStatus+0x1>
    10f6:	58 2f       	mov	r21, r24
    10f8:	50 78       	andi	r21, 0x80	; 128
    10fa:	47 fd       	sbrc	r20, 7
    10fc:	02 c0       	rjmp	.+4      	; 0x1102 <fetch+0xb74>
    10fe:	0c 94 b1 1d 	jmp	0x3b62	; 0x3b62 <fetch+0x35d4>
    1102:	55 23       	and	r21, r21
    1104:	11 f4       	brne	.+4      	; 0x110a <fetch+0xb7c>
    1106:	0c 94 28 1e 	jmp	0x3c50	; 0x3c50 <fetch+0x36c2>
    110a:	64 2f       	mov	r22, r20
    110c:	70 e0       	ldi	r23, 0x00	; 0
    110e:	69 83       	std	Y+1, r22	; 0x01
    1110:	7a 83       	std	Y+2, r23	; 0x02
    1112:	70 e0       	ldi	r23, 0x00	; 0
    1114:	57 2f       	mov	r21, r23
    1116:	57 70       	andi	r21, 0x07	; 7
    1118:	65 2f       	mov	r22, r21
    111a:	62 95       	swap	r22
    111c:	60 7f       	andi	r22, 0xF0	; 240
    111e:	50 91 0b 40 	lds	r21, 0x400B	; 0x80400b <newStatus+0x1>
    1122:	5f 78       	andi	r21, 0x8F	; 143
    1124:	56 2b       	or	r21, r22
    1126:	50 93 0b 40 	sts	0x400B, r21	; 0x80400b <newStatus+0x1>
    112a:	50 91 0f 50 	lds	r21, 0x500F	; 0x80500f <SREG_status+0x2>
    112e:	55 95       	asr	r21
    1130:	55 95       	asr	r21
    1132:	55 95       	asr	r21
    1134:	55 95       	asr	r21
    1136:	55 95       	asr	r21
    1138:	85 0f       	add	r24, r21
    113a:	91 1d       	adc	r25, r1
    113c:	57 fd       	sbrc	r21, 7
    113e:	9a 95       	dec	r25
    1140:	8c 01       	movw	r16, r24
    1142:	97 ff       	sbrs	r25, 7
    1144:	02 c0       	rjmp	.+4      	; 0x114a <fetch+0xbbc>
    1146:	0c 94 f2 1d 	jmp	0x3be4	; 0x3be4 <fetch+0x3656>
    114a:	51 e0       	ldi	r21, 0x01	; 1
    114c:	e9 80       	ldd	r14, Y+1	; 0x01
    114e:	fa 80       	ldd	r15, Y+2	; 0x02
    1150:	e0 16       	cp	r14, r16
    1152:	f1 06       	cpc	r15, r17
    1154:	0c f0       	brlt	.+2      	; 0x1158 <fetch+0xbca>
    1156:	50 e0       	ldi	r21, 0x00	; 0
    1158:	52 95       	swap	r21
    115a:	55 0f       	add	r21, r21
    115c:	50 7e       	andi	r21, 0xE0	; 224
    115e:	60 91 0c 40 	lds	r22, 0x400C	; 0x80400c <newStatus+0x2>
    1162:	6c 71       	andi	r22, 0x1C	; 28
    1164:	48 1b       	sub	r20, r24
    1166:	4c 93       	st	X, r20
    1168:	84 2f       	mov	r24, r20
    116a:	90 e0       	ldi	r25, 0x00	; 0
    116c:	80 93 12 50 	sts	0x5012, r24	; 0x805012 <result>
    1170:	90 93 13 50 	sts	0x5013, r25	; 0x805013 <result+0x1>
    1174:	94 2f       	mov	r25, r20
    1176:	99 1f       	adc	r25, r25
    1178:	99 27       	eor	r25, r25
    117a:	99 1f       	adc	r25, r25
    117c:	80 91 0b 40 	lds	r24, 0x400B	; 0x80400b <newStatus+0x1>
    1180:	90 fb       	bst	r25, 0
    1182:	87 f9       	bld	r24, 7
    1184:	80 93 0b 40 	sts	0x400B, r24	; 0x80400b <newStatus+0x1>
    1188:	56 2b       	or	r21, r22
    118a:	50 93 0c 40 	sts	0x400C, r21	; 0x80400c <newStatus+0x2>
    118e:	44 23       	and	r20, r20
    1190:	11 f4       	brne	.+4      	; 0x1196 <fetch+0xc08>
    1192:	0c 94 a1 18 	jmp	0x3142	; 0x3142 <fetch+0x2bb4>
    1196:	80 e0       	ldi	r24, 0x00	; 0
    1198:	48 2f       	mov	r20, r24
    119a:	44 0f       	add	r20, r20
    119c:	44 0f       	add	r20, r20
    119e:	80 91 0c 40 	lds	r24, 0x400C	; 0x80400c <newStatus+0x2>
    11a2:	83 7e       	andi	r24, 0xE3	; 227
    11a4:	84 2b       	or	r24, r20
    11a6:	80 93 0c 40 	sts	0x400C, r24	; 0x80400c <newStatus+0x2>
    11aa:	49 2f       	mov	r20, r25
    11ac:	47 27       	eor	r20, r23
    11ae:	81 e0       	ldi	r24, 0x01	; 1
    11b0:	14 16       	cp	r1, r20
    11b2:	0c f0       	brlt	.+2      	; 0x11b6 <fetch+0xc28>
    11b4:	3a c5       	rjmp	.+2676   	; 0x1c2a <fetch+0x169c>
    11b6:	88 0f       	add	r24, r24
    11b8:	40 91 0b 40 	lds	r20, 0x400B	; 0x80400b <newStatus+0x1>
    11bc:	41 7f       	andi	r20, 0xF1	; 241
    11be:	84 2b       	or	r24, r20
    11c0:	80 93 0b 40 	sts	0x400B, r24	; 0x80400b <newStatus+0x1>
    11c4:	2e 5f       	subi	r18, 0xFE	; 254
    11c6:	3f 4f       	sbci	r19, 0xFF	; 255
    11c8:	20 93 10 50 	sts	0x5010, r18	; 0x805010 <PC>
    11cc:	30 93 11 50 	sts	0x5011, r19	; 0x805011 <PC+0x1>
    11d0:	c9 ca       	rjmp	.-2670   	; 0x764 <fetch+0x1d6>
    11d2:	11 96       	adiw	r26, 0x01	; 1
    11d4:	7c 91       	ld	r23, X
    11d6:	e7 2f       	mov	r30, r23
    11d8:	e2 95       	swap	r30
    11da:	ef 70       	andi	r30, 0x0F	; 15
    11dc:	f0 e0       	ldi	r31, 0x00	; 0
    11de:	ec 5e       	subi	r30, 0xEC	; 236
    11e0:	ff 4a       	sbci	r31, 0xAF	; 175
    11e2:	00 89       	ldd	r16, Z+16	; 0x10
    11e4:	40 2f       	mov	r20, r16
    11e6:	50 e0       	ldi	r21, 0x00	; 0
    11e8:	60 e1       	ldi	r22, 0x10	; 16
    11ea:	96 9f       	mul	r25, r22
    11ec:	c0 01       	movw	r24, r0
    11ee:	11 24       	eor	r1, r1
    11f0:	fc 01       	movw	r30, r24
    11f2:	ff 27       	eor	r31, r31
    11f4:	97 2f       	mov	r25, r23
    11f6:	9f 70       	andi	r25, 0x0F	; 15
    11f8:	bf 01       	movw	r22, r30
    11fa:	69 2b       	or	r22, r25
    11fc:	da 01       	movw	r26, r20
    11fe:	a6 1b       	sub	r26, r22
    1200:	b7 0b       	sbc	r27, r23
    1202:	a0 93 12 50 	sts	0x5012, r26	; 0x805012 <result>
    1206:	b0 93 13 50 	sts	0x5013, r27	; 0x805013 <result+0x1>
    120a:	98 2b       	or	r25, r24
    120c:	89 2f       	mov	r24, r25
    120e:	80 78       	andi	r24, 0x80	; 128
    1210:	07 fd       	sbrc	r16, 7
    1212:	02 c0       	rjmp	.+4      	; 0x1218 <fetch+0xc8a>
    1214:	0c 94 7d 1d 	jmp	0x3afa	; 0x3afa <fetch+0x356c>
    1218:	88 23       	and	r24, r24
    121a:	11 f4       	brne	.+4      	; 0x1220 <fetch+0xc92>
    121c:	0c 94 19 1e 	jmp	0x3c32	; 0x3c32 <fetch+0x36a4>
    1220:	19 82       	std	Y+1, r1	; 0x01
    1222:	89 81       	ldd	r24, Y+1	; 0x01
    1224:	87 70       	andi	r24, 0x07	; 7
    1226:	82 95       	swap	r24
    1228:	80 7f       	andi	r24, 0xF0	; 240
    122a:	8b 83       	std	Y+3, r24	; 0x03
    122c:	10 91 0b 40 	lds	r17, 0x400B	; 0x80400b <newStatus+0x1>
    1230:	93 fb       	bst	r25, 3
    1232:	ee 27       	eor	r30, r30
    1234:	e0 f9       	bld	r30, 0
    1236:	f0 2f       	mov	r31, r16
    1238:	f9 1b       	sub	r31, r25
    123a:	f3 fb       	bst	r31, 3
    123c:	88 27       	eor	r24, r24
    123e:	80 f9       	bld	r24, 0
    1240:	03 fb       	bst	r16, 3
    1242:	99 27       	eor	r25, r25
    1244:	90 f9       	bld	r25, 0
    1246:	f1 e0       	ldi	r31, 0x01	; 1
    1248:	9f 27       	eor	r25, r31
    124a:	f8 2f       	mov	r31, r24
    124c:	fe 2b       	or	r31, r30
    124e:	9f 23       	and	r25, r31
    1250:	8e 23       	and	r24, r30
    1252:	e9 2f       	mov	r30, r25
    1254:	e8 2b       	or	r30, r24
    1256:	9e 2f       	mov	r25, r30
    1258:	92 95       	swap	r25
    125a:	99 0f       	add	r25, r25
    125c:	99 0f       	add	r25, r25
    125e:	90 7c       	andi	r25, 0xC0	; 192
    1260:	80 91 0a 40 	lds	r24, 0x400A	; 0x80400a <newStatus>
    1264:	8f 73       	andi	r24, 0x3F	; 63
    1266:	89 2b       	or	r24, r25
    1268:	80 93 0a 40 	sts	0x400A, r24	; 0x80400a <newStatus>
    126c:	81 2f       	mov	r24, r17
    126e:	8e 70       	andi	r24, 0x0E	; 14
    1270:	8d 01       	movw	r16, r26
    1272:	00 0f       	add	r16, r16
    1274:	01 2f       	mov	r16, r17
    1276:	00 1f       	adc	r16, r16
    1278:	11 0b       	sbc	r17, r17
    127a:	11 95       	neg	r17
    127c:	90 2f       	mov	r25, r16
    127e:	91 70       	andi	r25, 0x01	; 1
    1280:	f9 2f       	mov	r31, r25
    1282:	f7 95       	ror	r31
    1284:	ff 27       	eor	r31, r31
    1286:	f7 95       	ror	r31
    1288:	cb 80       	ldd	r12, Y+3	; 0x03
    128a:	8c 29       	or	r24, r12
    128c:	8f 2b       	or	r24, r31
    128e:	80 93 0b 40 	sts	0x400B, r24	; 0x80400b <newStatus+0x1>
    1292:	80 91 0c 40 	lds	r24, 0x400C	; 0x80400c <newStatus+0x2>
    1296:	8c 7f       	andi	r24, 0xFC	; 252
    1298:	80 93 0c 40 	sts	0x400C, r24	; 0x80400c <newStatus+0x2>
    129c:	81 e0       	ldi	r24, 0x01	; 1
    129e:	ab 2b       	or	r26, r27
    12a0:	09 f0       	breq	.+2      	; 0x12a4 <fetch+0xd16>
    12a2:	80 e0       	ldi	r24, 0x00	; 0
    12a4:	88 0f       	add	r24, r24
    12a6:	88 0f       	add	r24, r24
    12a8:	f0 91 0c 40 	lds	r31, 0x400C	; 0x80400c <newStatus+0x2>
    12ac:	f3 7e       	andi	r31, 0xE3	; 227
    12ae:	8f 2b       	or	r24, r31
    12b0:	80 93 0c 40 	sts	0x400C, r24	; 0x80400c <newStatus+0x2>
    12b4:	f9 81       	ldd	r31, Y+1	; 0x01
    12b6:	f9 27       	eor	r31, r25
    12b8:	81 e0       	ldi	r24, 0x01	; 1
    12ba:	1f 16       	cp	r1, r31
    12bc:	14 f0       	brlt	.+4      	; 0x12c2 <fetch+0xd34>
    12be:	0c 94 e9 1d 	jmp	0x3bd2	; 0x3bd2 <fetch+0x3644>
    12c2:	88 0f       	add	r24, r24
    12c4:	f0 91 0b 40 	lds	r31, 0x400B	; 0x80400b <newStatus+0x1>
    12c8:	f1 7f       	andi	r31, 0xF1	; 241
    12ca:	8f 2b       	or	r24, r31
    12cc:	80 93 0b 40 	sts	0x400B, r24	; 0x80400b <newStatus+0x1>
    12d0:	81 e0       	ldi	r24, 0x01	; 1
    12d2:	46 17       	cp	r20, r22
    12d4:	57 07       	cpc	r21, r23
    12d6:	0c f0       	brlt	.+2      	; 0x12da <fetch+0xd4c>
    12d8:	a5 c0       	rjmp	.+330    	; 0x1424 <fetch+0xe96>
    12da:	82 95       	swap	r24
    12dc:	88 0f       	add	r24, r24
    12de:	80 7e       	andi	r24, 0xE0	; 224
    12e0:	40 91 0c 40 	lds	r20, 0x400C	; 0x80400c <newStatus+0x2>
    12e4:	4f 71       	andi	r20, 0x1F	; 31
    12e6:	84 2b       	or	r24, r20
    12e8:	80 93 0c 40 	sts	0x400C, r24	; 0x80400c <newStatus+0x2>
    12ec:	2e 5f       	subi	r18, 0xFE	; 254
    12ee:	3f 4f       	sbci	r19, 0xFF	; 255
    12f0:	20 93 10 50 	sts	0x5010, r18	; 0x805010 <PC>
    12f4:	30 93 11 50 	sts	0x5011, r19	; 0x805011 <PC+0x1>
    12f8:	35 ca       	rjmp	.-2966   	; 0x764 <fetch+0x1d6>
    12fa:	11 96       	adiw	r26, 0x01	; 1
    12fc:	8c 91       	ld	r24, X
    12fe:	f9 2f       	mov	r31, r25
    1300:	f1 70       	andi	r31, 0x01	; 1
    1302:	ff 87       	std	Y+15, r31	; 0x0f
    1304:	18 8a       	std	Y+16, r1	; 0x10
    1306:	ef 85       	ldd	r30, Y+15	; 0x0f
    1308:	f8 89       	ldd	r31, Y+16	; 0x10
    130a:	e2 95       	swap	r30
    130c:	f2 95       	swap	r31
    130e:	f0 7f       	andi	r31, 0xF0	; 240
    1310:	fe 27       	eor	r31, r30
    1312:	e0 7f       	andi	r30, 0xF0	; 240
    1314:	fe 27       	eor	r31, r30
    1316:	48 2f       	mov	r20, r24
    1318:	42 95       	swap	r20
    131a:	4f 70       	andi	r20, 0x0F	; 15
    131c:	e4 2b       	or	r30, r20
    131e:	ec 5e       	subi	r30, 0xEC	; 236
    1320:	ff 4a       	sbci	r31, 0xAF	; 175
    1322:	40 81       	ld	r20, Z
    1324:	96 95       	lsr	r25
    1326:	91 70       	andi	r25, 0x01	; 1
    1328:	99 8b       	std	Y+17, r25	; 0x11
    132a:	1a 8a       	std	Y+18, r1	; 0x12
    132c:	e9 89       	ldd	r30, Y+17	; 0x11
    132e:	fa 89       	ldd	r31, Y+18	; 0x12
    1330:	e2 95       	swap	r30
    1332:	f2 95       	swap	r31
    1334:	f0 7f       	andi	r31, 0xF0	; 240
    1336:	fe 27       	eor	r31, r30
    1338:	e0 7f       	andi	r30, 0xF0	; 240
    133a:	fe 27       	eor	r31, r30
    133c:	8f 70       	andi	r24, 0x0F	; 15
    133e:	e8 2b       	or	r30, r24
    1340:	ec 5e       	subi	r30, 0xEC	; 236
    1342:	ff 4a       	sbci	r31, 0xAF	; 175
    1344:	f0 81       	ld	r31, Z
    1346:	a4 2f       	mov	r26, r20
    1348:	b0 e0       	ldi	r27, 0x00	; 0
    134a:	af 1b       	sub	r26, r31
    134c:	b1 09       	sbc	r27, r1
    134e:	a0 93 12 50 	sts	0x5012, r26	; 0x805012 <result>
    1352:	b0 93 13 50 	sts	0x5013, r27	; 0x805013 <result+0x1>
    1356:	f3 fb       	bst	r31, 3
    1358:	66 27       	eor	r22, r22
    135a:	60 f9       	bld	r22, 0
    135c:	84 2f       	mov	r24, r20
    135e:	8f 1b       	sub	r24, r31
    1360:	83 fb       	bst	r24, 3
    1362:	55 27       	eor	r21, r21
    1364:	50 f9       	bld	r21, 0
    1366:	43 fb       	bst	r20, 3
    1368:	88 27       	eor	r24, r24
    136a:	80 f9       	bld	r24, 0
    136c:	91 e0       	ldi	r25, 0x01	; 1
    136e:	89 27       	eor	r24, r25
    1370:	e5 2f       	mov	r30, r21
    1372:	e8 2b       	or	r30, r24
    1374:	e6 23       	and	r30, r22
    1376:	85 23       	and	r24, r21
    1378:	e8 2b       	or	r30, r24
    137a:	9e 2f       	mov	r25, r30
    137c:	92 95       	swap	r25
    137e:	99 0f       	add	r25, r25
    1380:	99 0f       	add	r25, r25
    1382:	90 7c       	andi	r25, 0xC0	; 192
    1384:	80 91 0a 40 	lds	r24, 0x400A	; 0x80400a <newStatus>
    1388:	8f 73       	andi	r24, 0x3F	; 63
    138a:	89 2b       	or	r24, r25
    138c:	80 93 0a 40 	sts	0x400A, r24	; 0x80400a <newStatus>
    1390:	80 91 0b 40 	lds	r24, 0x400B	; 0x80400b <newStatus+0x1>
    1394:	8e 7f       	andi	r24, 0xFE	; 254
    1396:	80 93 0b 40 	sts	0x400B, r24	; 0x80400b <newStatus+0x1>
    139a:	8f 2f       	mov	r24, r31
    139c:	80 78       	andi	r24, 0x80	; 128
    139e:	47 fd       	sbrc	r20, 7
    13a0:	02 c0       	rjmp	.+4      	; 0x13a6 <fetch+0xe18>
    13a2:	0c 94 c9 1d 	jmp	0x3b92	; 0x3b92 <fetch+0x3604>
    13a6:	88 23       	and	r24, r24
    13a8:	11 f4       	brne	.+4      	; 0x13ae <fetch+0xe20>
    13aa:	0c 94 4f 1e 	jmp	0x3c9e	; 0x3c9e <fetch+0x3710>
    13ae:	60 e0       	ldi	r22, 0x00	; 0
    13b0:	cd 01       	movw	r24, r26
    13b2:	88 0f       	add	r24, r24
    13b4:	89 2f       	mov	r24, r25
    13b6:	88 1f       	adc	r24, r24
    13b8:	99 0b       	sbc	r25, r25
    13ba:	91 95       	neg	r25
    13bc:	56 2f       	mov	r21, r22
    13be:	57 70       	andi	r21, 0x07	; 7
    13c0:	52 95       	swap	r21
    13c2:	50 7f       	andi	r21, 0xF0	; 240
    13c4:	10 91 0b 40 	lds	r17, 0x400B	; 0x80400b <newStatus+0x1>
    13c8:	1f 70       	andi	r17, 0x0F	; 15
    13ca:	98 2f       	mov	r25, r24
    13cc:	91 70       	andi	r25, 0x01	; 1
    13ce:	79 2f       	mov	r23, r25
    13d0:	77 95       	ror	r23
    13d2:	77 27       	eor	r23, r23
    13d4:	77 95       	ror	r23
    13d6:	81 2f       	mov	r24, r17
    13d8:	85 2b       	or	r24, r21
    13da:	87 2b       	or	r24, r23
    13dc:	80 93 0b 40 	sts	0x400B, r24	; 0x80400b <newStatus+0x1>
    13e0:	80 91 0c 40 	lds	r24, 0x400C	; 0x80400c <newStatus+0x2>
    13e4:	8c 7f       	andi	r24, 0xFC	; 252
    13e6:	80 93 0c 40 	sts	0x400C, r24	; 0x80400c <newStatus+0x2>
    13ea:	81 e0       	ldi	r24, 0x01	; 1
    13ec:	ab 2b       	or	r26, r27
    13ee:	09 f0       	breq	.+2      	; 0x13f2 <fetch+0xe64>
    13f0:	80 e0       	ldi	r24, 0x00	; 0
    13f2:	88 0f       	add	r24, r24
    13f4:	88 0f       	add	r24, r24
    13f6:	50 91 0c 40 	lds	r21, 0x400C	; 0x80400c <newStatus+0x2>
    13fa:	53 7e       	andi	r21, 0xE3	; 227
    13fc:	85 2b       	or	r24, r21
    13fe:	80 93 0c 40 	sts	0x400C, r24	; 0x80400c <newStatus+0x2>
    1402:	69 27       	eor	r22, r25
    1404:	81 e0       	ldi	r24, 0x01	; 1
    1406:	16 16       	cp	r1, r22
    1408:	14 f0       	brlt	.+4      	; 0x140e <fetch+0xe80>
    140a:	0c 94 ef 1d 	jmp	0x3bde	; 0x3bde <fetch+0x3650>
    140e:	88 0f       	add	r24, r24
    1410:	50 91 0b 40 	lds	r21, 0x400B	; 0x80400b <newStatus+0x1>
    1414:	51 7f       	andi	r21, 0xF1	; 241
    1416:	85 2b       	or	r24, r21
    1418:	80 93 0b 40 	sts	0x400B, r24	; 0x80400b <newStatus+0x1>
    141c:	81 e0       	ldi	r24, 0x01	; 1
    141e:	4f 17       	cp	r20, r31
    1420:	08 f4       	brcc	.+2      	; 0x1424 <fetch+0xe96>
    1422:	5b cf       	rjmp	.-330    	; 0x12da <fetch+0xd4c>
    1424:	80 e0       	ldi	r24, 0x00	; 0
    1426:	59 cf       	rjmp	.-334    	; 0x12da <fetch+0xd4c>
    1428:	11 96       	adiw	r26, 0x01	; 1
    142a:	8c 91       	ld	r24, X
    142c:	09 2f       	mov	r16, r25
    142e:	01 70       	andi	r16, 0x01	; 1
    1430:	0f 83       	std	Y+7, r16	; 0x07
    1432:	18 86       	std	Y+8, r1	; 0x08
    1434:	af 81       	ldd	r26, Y+7	; 0x07
    1436:	b8 85       	ldd	r27, Y+8	; 0x08
    1438:	a2 95       	swap	r26
    143a:	b2 95       	swap	r27
    143c:	b0 7f       	andi	r27, 0xF0	; 240
    143e:	ba 27       	eor	r27, r26
    1440:	a0 7f       	andi	r26, 0xF0	; 240
    1442:	ba 27       	eor	r27, r26
    1444:	48 2f       	mov	r20, r24
    1446:	42 95       	swap	r20
    1448:	4f 70       	andi	r20, 0x0F	; 15
    144a:	a4 2b       	or	r26, r20
    144c:	ac 5e       	subi	r26, 0xEC	; 236
    144e:	bf 4a       	sbci	r27, 0xAF	; 175
    1450:	1c 91       	ld	r17, X
    1452:	19 83       	std	Y+1, r17	; 0x01
    1454:	96 95       	lsr	r25
    1456:	91 70       	andi	r25, 0x01	; 1
    1458:	99 87       	std	Y+9, r25	; 0x09
    145a:	1a 86       	std	Y+10, r1	; 0x0a
    145c:	e9 85       	ldd	r30, Y+9	; 0x09
    145e:	fa 85       	ldd	r31, Y+10	; 0x0a
    1460:	e2 95       	swap	r30
    1462:	f2 95       	swap	r31
    1464:	f0 7f       	andi	r31, 0xF0	; 240
    1466:	fe 27       	eor	r31, r30
    1468:	e0 7f       	andi	r30, 0xF0	; 240
    146a:	fe 27       	eor	r31, r30
    146c:	8f 70       	andi	r24, 0x0F	; 15
    146e:	e8 2b       	or	r30, r24
    1470:	ec 5e       	subi	r30, 0xEC	; 236
    1472:	ff 4a       	sbci	r31, 0xAF	; 175
    1474:	50 81       	ld	r21, Z
    1476:	65 2f       	mov	r22, r21
    1478:	70 e0       	ldi	r23, 0x00	; 0
    147a:	61 0f       	add	r22, r17
    147c:	71 1d       	adc	r23, r1
    147e:	60 93 12 50 	sts	0x5012, r22	; 0x805012 <result>
    1482:	70 93 13 50 	sts	0x5013, r23	; 0x805013 <result+0x1>
    1486:	81 2f       	mov	r24, r17
    1488:	8f 70       	andi	r24, 0x0F	; 15
    148a:	e5 2f       	mov	r30, r21
    148c:	ef 70       	andi	r30, 0x0F	; 15
    148e:	f0 e0       	ldi	r31, 0x00	; 0
    1490:	e8 0f       	add	r30, r24
    1492:	f1 1d       	adc	r31, r1
    1494:	f2 95       	swap	r31
    1496:	e2 95       	swap	r30
    1498:	ef 70       	andi	r30, 0x0F	; 15
    149a:	ef 27       	eor	r30, r31
    149c:	ff 70       	andi	r31, 0x0F	; 15
    149e:	ef 27       	eor	r30, r31
    14a0:	e1 70       	andi	r30, 0x01	; 1
    14a2:	9e 2f       	mov	r25, r30
    14a4:	92 95       	swap	r25
    14a6:	99 0f       	add	r25, r25
    14a8:	99 0f       	add	r25, r25
    14aa:	90 7c       	andi	r25, 0xC0	; 192
    14ac:	80 91 0a 40 	lds	r24, 0x400A	; 0x80400a <newStatus>
    14b0:	8f 73       	andi	r24, 0x3F	; 63
    14b2:	89 2b       	or	r24, r25
    14b4:	80 93 0a 40 	sts	0x400A, r24	; 0x80400a <newStatus>
    14b8:	80 91 0b 40 	lds	r24, 0x400B	; 0x80400b <newStatus+0x1>
    14bc:	8e 7f       	andi	r24, 0xFE	; 254
    14be:	80 93 0b 40 	sts	0x400B, r24	; 0x80400b <newStatus+0x1>
    14c2:	85 2f       	mov	r24, r21
    14c4:	80 78       	andi	r24, 0x80	; 128
    14c6:	17 fd       	sbrc	r17, 7
    14c8:	02 c0       	rjmp	.+4      	; 0x14ce <fetch+0xf40>
    14ca:	0c 94 a7 1f 	jmp	0x3f4e	; 0x3f4e <fetch+0x39c0>
    14ce:	88 23       	and	r24, r24
    14d0:	11 f4       	brne	.+4      	; 0x14d6 <fetch+0xf48>
    14d2:	0c 94 71 1c 	jmp	0x38e2	; 0x38e2 <fetch+0x3354>
    14d6:	41 e0       	ldi	r20, 0x01	; 1
    14d8:	67 fd       	sbrc	r22, 7
    14da:	40 e0       	ldi	r20, 0x00	; 0
    14dc:	42 95       	swap	r20
    14de:	44 0f       	add	r20, r20
    14e0:	40 7e       	andi	r20, 0xE0	; 224
    14e2:	45 95       	asr	r20
    14e4:	45 95       	asr	r20
    14e6:	45 95       	asr	r20
    14e8:	45 95       	asr	r20
    14ea:	45 95       	asr	r20
    14ec:	cb 01       	movw	r24, r22
    14ee:	88 0f       	add	r24, r24
    14f0:	89 2f       	mov	r24, r25
    14f2:	88 1f       	adc	r24, r24
    14f4:	99 0b       	sbc	r25, r25
    14f6:	91 95       	neg	r25
    14f8:	f4 2f       	mov	r31, r20
    14fa:	f7 70       	andi	r31, 0x07	; 7
    14fc:	f2 95       	swap	r31
    14fe:	f0 7f       	andi	r31, 0xF0	; 240
    1500:	10 91 0b 40 	lds	r17, 0x400B	; 0x80400b <newStatus+0x1>
    1504:	1f 70       	andi	r17, 0x0F	; 15
    1506:	98 2f       	mov	r25, r24
    1508:	91 70       	andi	r25, 0x01	; 1
    150a:	89 2f       	mov	r24, r25
    150c:	87 95       	ror	r24
    150e:	88 27       	eor	r24, r24
    1510:	87 95       	ror	r24
    1512:	8b 83       	std	Y+3, r24	; 0x03
    1514:	81 2f       	mov	r24, r17
    1516:	8f 2b       	or	r24, r31
    1518:	fb 81       	ldd	r31, Y+3	; 0x03
    151a:	8f 2b       	or	r24, r31
    151c:	80 93 0b 40 	sts	0x400B, r24	; 0x80400b <newStatus+0x1>
    1520:	80 91 0c 40 	lds	r24, 0x400C	; 0x80400c <newStatus+0x2>
    1524:	8c 7f       	andi	r24, 0xFC	; 252
    1526:	80 93 0c 40 	sts	0x400C, r24	; 0x80400c <newStatus+0x2>
    152a:	49 27       	eor	r20, r25
    152c:	81 e0       	ldi	r24, 0x01	; 1
    152e:	14 16       	cp	r1, r20
    1530:	14 f0       	brlt	.+4      	; 0x1536 <fetch+0xfa8>
    1532:	0c 94 e0 1d 	jmp	0x3bc0	; 0x3bc0 <fetch+0x3632>
    1536:	88 0f       	add	r24, r24
    1538:	40 91 0b 40 	lds	r20, 0x400B	; 0x80400b <newStatus+0x1>
    153c:	41 7f       	andi	r20, 0xF1	; 241
    153e:	84 2b       	or	r24, r20
    1540:	80 93 0b 40 	sts	0x400B, r24	; 0x80400b <newStatus+0x1>
    1544:	81 e0       	ldi	r24, 0x01	; 1
    1546:	61 15       	cp	r22, r1
    1548:	71 05       	cpc	r23, r1
    154a:	09 f0       	breq	.+2      	; 0x154e <fetch+0xfc0>
    154c:	80 e0       	ldi	r24, 0x00	; 0
    154e:	88 0f       	add	r24, r24
    1550:	88 0f       	add	r24, r24
    1552:	40 91 0c 40 	lds	r20, 0x400C	; 0x80400c <newStatus+0x2>
    1556:	43 7e       	andi	r20, 0xE3	; 227
    1558:	84 2b       	or	r24, r20
    155a:	80 93 0c 40 	sts	0x400C, r24	; 0x80400c <newStatus+0x2>
    155e:	81 e0       	ldi	r24, 0x01	; 1
    1560:	6f 3f       	cpi	r22, 0xFF	; 255
    1562:	71 05       	cpc	r23, r1
    1564:	09 f0       	breq	.+2      	; 0x1568 <fetch+0xfda>
    1566:	08 f4       	brcc	.+2      	; 0x156a <fetch+0xfdc>
    1568:	80 e0       	ldi	r24, 0x00	; 0
    156a:	82 95       	swap	r24
    156c:	88 0f       	add	r24, r24
    156e:	80 7e       	andi	r24, 0xE0	; 224
    1570:	40 91 0c 40 	lds	r20, 0x400C	; 0x80400c <newStatus+0x2>
    1574:	4f 71       	andi	r20, 0x1F	; 31
    1576:	84 2b       	or	r24, r20
    1578:	80 93 0c 40 	sts	0x400C, r24	; 0x80400c <newStatus+0x2>
    157c:	c9 80       	ldd	r12, Y+1	; 0x01
    157e:	5c 0d       	add	r21, r12
    1580:	5c 93       	st	X, r21
    1582:	2e 5f       	subi	r18, 0xFE	; 254
    1584:	3f 4f       	sbci	r19, 0xFF	; 255
    1586:	20 93 10 50 	sts	0x5010, r18	; 0x805010 <PC>
    158a:	30 93 11 50 	sts	0x5011, r19	; 0x805011 <PC+0x1>
    158e:	ea c8       	rjmp	.-3628   	; 0x764 <fetch+0x1d6>
    1590:	11 96       	adiw	r26, 0x01	; 1
    1592:	8c 91       	ld	r24, X
    1594:	a9 2f       	mov	r26, r25
    1596:	a1 70       	andi	r26, 0x01	; 1
    1598:	ab 83       	std	Y+3, r26	; 0x03
    159a:	1c 82       	std	Y+4, r1	; 0x04
    159c:	ab 81       	ldd	r26, Y+3	; 0x03
    159e:	bc 81       	ldd	r27, Y+4	; 0x04
    15a0:	a2 95       	swap	r26
    15a2:	b2 95       	swap	r27
    15a4:	b0 7f       	andi	r27, 0xF0	; 240
    15a6:	ba 27       	eor	r27, r26
    15a8:	a0 7f       	andi	r26, 0xF0	; 240
    15aa:	ba 27       	eor	r27, r26
    15ac:	48 2f       	mov	r20, r24
    15ae:	42 95       	swap	r20
    15b0:	4f 70       	andi	r20, 0x0F	; 15
    15b2:	a4 2b       	or	r26, r20
    15b4:	ac 5e       	subi	r26, 0xEC	; 236
    15b6:	bf 4a       	sbci	r27, 0xAF	; 175
    15b8:	dc 90       	ld	r13, X
    15ba:	4d 2d       	mov	r20, r13
    15bc:	50 e0       	ldi	r21, 0x00	; 0
    15be:	96 95       	lsr	r25
    15c0:	91 70       	andi	r25, 0x01	; 1
    15c2:	9d 83       	std	Y+5, r25	; 0x05
    15c4:	1e 82       	std	Y+6, r1	; 0x06
    15c6:	ed 81       	ldd	r30, Y+5	; 0x05
    15c8:	fe 81       	ldd	r31, Y+6	; 0x06
    15ca:	e2 95       	swap	r30
    15cc:	f2 95       	swap	r31
    15ce:	f0 7f       	andi	r31, 0xF0	; 240
    15d0:	fe 27       	eor	r31, r30
    15d2:	e0 7f       	andi	r30, 0xF0	; 240
    15d4:	fe 27       	eor	r31, r30
    15d6:	8f 70       	andi	r24, 0x0F	; 15
    15d8:	e8 2b       	or	r30, r24
    15da:	ec 5e       	subi	r30, 0xEC	; 236
    15dc:	ff 4a       	sbci	r31, 0xAF	; 175
    15de:	c0 80       	ld	r12, Z
    15e0:	0c 2d       	mov	r16, r12
    15e2:	10 e0       	ldi	r17, 0x00	; 0
    15e4:	7a 01       	movw	r14, r20
    15e6:	e0 1a       	sub	r14, r16
    15e8:	f1 0a       	sbc	r15, r17
    15ea:	80 91 0f 50 	lds	r24, 0x500F	; 0x80500f <SREG_status+0x2>
    15ee:	80 7e       	andi	r24, 0xE0	; 224
    15f0:	61 e0       	ldi	r22, 0x01	; 1
    15f2:	80 32       	cpi	r24, 0x20	; 32
    15f4:	09 f0       	breq	.+2      	; 0x15f8 <fetch+0x106a>
    15f6:	60 e0       	ldi	r22, 0x00	; 0
    15f8:	70 e0       	ldi	r23, 0x00	; 0
    15fa:	f7 01       	movw	r30, r14
    15fc:	e6 1b       	sub	r30, r22
    15fe:	f7 0b       	sbc	r31, r23
    1600:	e9 83       	std	Y+1, r30	; 0x01
    1602:	fa 83       	std	Y+2, r31	; 0x02
    1604:	e0 93 12 50 	sts	0x5012, r30	; 0x805012 <result>
    1608:	f0 93 13 50 	sts	0x5013, r31	; 0x805013 <result+0x1>
    160c:	c3 fa       	bst	r12, 3
    160e:	bb 24       	eor	r11, r11
    1610:	b0 f8       	bld	r11, 0
    1612:	fd 2d       	mov	r31, r13
    1614:	fc 19       	sub	r31, r12
    1616:	f3 fb       	bst	r31, 3
    1618:	ff 27       	eor	r31, r31
    161a:	f0 f9       	bld	r31, 0
    161c:	d3 fa       	bst	r13, 3
    161e:	88 27       	eor	r24, r24
    1620:	80 f9       	bld	r24, 0
    1622:	91 e0       	ldi	r25, 0x01	; 1
    1624:	89 27       	eor	r24, r25
    1626:	e8 2f       	mov	r30, r24
    1628:	ef 2b       	or	r30, r31
    162a:	eb 21       	and	r30, r11
    162c:	8f 23       	and	r24, r31
    162e:	e8 2b       	or	r30, r24
    1630:	9e 2f       	mov	r25, r30
    1632:	92 95       	swap	r25
    1634:	99 0f       	add	r25, r25
    1636:	99 0f       	add	r25, r25
    1638:	90 7c       	andi	r25, 0xC0	; 192
    163a:	80 91 0a 40 	lds	r24, 0x400A	; 0x80400a <newStatus>
    163e:	8f 73       	andi	r24, 0x3F	; 63
    1640:	89 2b       	or	r24, r25
    1642:	80 93 0a 40 	sts	0x400A, r24	; 0x80400a <newStatus>
    1646:	80 91 0b 40 	lds	r24, 0x400B	; 0x80400b <newStatus+0x1>
    164a:	8e 7f       	andi	r24, 0xFE	; 254
    164c:	80 93 0b 40 	sts	0x400B, r24	; 0x80400b <newStatus+0x1>
    1650:	8c 2d       	mov	r24, r12
    1652:	80 78       	andi	r24, 0x80	; 128
    1654:	d7 fc       	sbrc	r13, 7
    1656:	02 c0       	rjmp	.+4      	; 0x165c <fetch+0x10ce>
    1658:	0c 94 6a 1d 	jmp	0x3ad4	; 0x3ad4 <fetch+0x3546>
    165c:	88 23       	and	r24, r24
    165e:	11 f4       	brne	.+4      	; 0x1664 <fetch+0x10d6>
    1660:	0c 94 d2 14 	jmp	0x29a4	; 0x29a4 <fetch+0x2416>
    1664:	f1 2c       	mov	r15, r1
    1666:	8f 2d       	mov	r24, r15
    1668:	87 70       	andi	r24, 0x07	; 7
    166a:	f8 2f       	mov	r31, r24
    166c:	f2 95       	swap	r31
    166e:	f0 7f       	andi	r31, 0xF0	; 240
    1670:	80 91 0b 40 	lds	r24, 0x400B	; 0x80400b <newStatus+0x1>
    1674:	8f 70       	andi	r24, 0x0F	; 15
    1676:	c9 80       	ldd	r12, Y+1	; 0x01
    1678:	da 80       	ldd	r13, Y+2	; 0x02
    167a:	cc 0c       	add	r12, r12
    167c:	cd 2c       	mov	r12, r13
    167e:	cc 1c       	adc	r12, r12
    1680:	dd 08       	sbc	r13, r13
    1682:	d1 94       	neg	r13
    1684:	9c 2d       	mov	r25, r12
    1686:	91 70       	andi	r25, 0x01	; 1
    1688:	e9 2e       	mov	r14, r25
    168a:	e7 94       	ror	r14
    168c:	ee 24       	eor	r14, r14
    168e:	e7 94       	ror	r14
    1690:	8f 2b       	or	r24, r31
    1692:	8e 29       	or	r24, r14
    1694:	80 93 0b 40 	sts	0x400B, r24	; 0x80400b <newStatus+0x1>
    1698:	80 91 0c 40 	lds	r24, 0x400C	; 0x80400c <newStatus+0x2>
    169c:	8c 7f       	andi	r24, 0xFC	; 252
    169e:	80 93 0c 40 	sts	0x400C, r24	; 0x80400c <newStatus+0x2>
    16a2:	c9 80       	ldd	r12, Y+1	; 0x01
    16a4:	da 80       	ldd	r13, Y+2	; 0x02
    16a6:	cd 28       	or	r12, r13
    16a8:	11 f4       	brne	.+4      	; 0x16ae <fetch+0x1120>
    16aa:	0c 94 a4 18 	jmp	0x3148	; 0x3148 <fetch+0x2bba>
    16ae:	80 e0       	ldi	r24, 0x00	; 0
    16b0:	f8 2f       	mov	r31, r24
    16b2:	ff 0f       	add	r31, r31
    16b4:	ff 0f       	add	r31, r31
    16b6:	80 91 0c 40 	lds	r24, 0x400C	; 0x80400c <newStatus+0x2>
    16ba:	83 7e       	andi	r24, 0xE3	; 227
    16bc:	8f 2b       	or	r24, r31
    16be:	80 93 0c 40 	sts	0x400C, r24	; 0x80400c <newStatus+0x2>
    16c2:	f9 2f       	mov	r31, r25
    16c4:	ff 25       	eor	r31, r15
    16c6:	81 e0       	ldi	r24, 0x01	; 1
    16c8:	1f 16       	cp	r1, r31
    16ca:	14 f0       	brlt	.+4      	; 0x16d0 <fetch+0x1142>
    16cc:	0c 94 e6 1d 	jmp	0x3bcc	; 0x3bcc <fetch+0x363e>
    16d0:	88 0f       	add	r24, r24
    16d2:	f0 91 0b 40 	lds	r31, 0x400B	; 0x80400b <newStatus+0x1>
    16d6:	f1 7f       	andi	r31, 0xF1	; 241
    16d8:	8f 2b       	or	r24, r31
    16da:	80 93 0b 40 	sts	0x400B, r24	; 0x80400b <newStatus+0x1>
    16de:	60 0f       	add	r22, r16
    16e0:	71 1f       	adc	r23, r17
    16e2:	81 e0       	ldi	r24, 0x01	; 1
    16e4:	46 17       	cp	r20, r22
    16e6:	57 07       	cpc	r21, r23
    16e8:	0c f0       	brlt	.+2      	; 0x16ec <fetch+0x115e>
    16ea:	80 e0       	ldi	r24, 0x00	; 0
    16ec:	82 95       	swap	r24
    16ee:	88 0f       	add	r24, r24
    16f0:	80 7e       	andi	r24, 0xE0	; 224
    16f2:	40 91 0c 40 	lds	r20, 0x400C	; 0x80400c <newStatus+0x2>
    16f6:	4f 71       	andi	r20, 0x1F	; 31
    16f8:	84 2b       	or	r24, r20
    16fa:	80 93 0c 40 	sts	0x400C, r24	; 0x80400c <newStatus+0x2>
    16fe:	d9 80       	ldd	r13, Y+1	; 0x01
    1700:	dc 92       	st	X, r13
    1702:	2e 5f       	subi	r18, 0xFE	; 254
    1704:	3f 4f       	sbci	r19, 0xFF	; 255
    1706:	20 93 10 50 	sts	0x5010, r18	; 0x805010 <PC>
    170a:	30 93 11 50 	sts	0x5011, r19	; 0x805011 <PC+0x1>
    170e:	2a c8       	rjmp	.-4012   	; 0x764 <fetch+0x1d6>
    1710:	11 96       	adiw	r26, 0x01	; 1
    1712:	8c 91       	ld	r24, X
    1714:	19 2f       	mov	r17, r25
    1716:	11 70       	andi	r17, 0x01	; 1
    1718:	1f 8f       	std	Y+31, r17	; 0x1f
    171a:	18 a2       	std	Y+32, r1	; 0x20
    171c:	ef 8d       	ldd	r30, Y+31	; 0x1f
    171e:	f8 a1       	ldd	r31, Y+32	; 0x20
    1720:	e2 95       	swap	r30
    1722:	f2 95       	swap	r31
    1724:	f0 7f       	andi	r31, 0xF0	; 240
    1726:	fe 27       	eor	r31, r30
    1728:	e0 7f       	andi	r30, 0xF0	; 240
    172a:	fe 27       	eor	r31, r30
    172c:	48 2f       	mov	r20, r24
    172e:	42 95       	swap	r20
    1730:	4f 70       	andi	r20, 0x0F	; 15
    1732:	e4 2b       	or	r30, r20
    1734:	92 70       	andi	r25, 0x02	; 2
    1736:	a9 2f       	mov	r26, r25
    1738:	b0 e0       	ldi	r27, 0x00	; 0
    173a:	aa 0f       	add	r26, r26
    173c:	bb 1f       	adc	r27, r27
    173e:	aa 0f       	add	r26, r26
    1740:	bb 1f       	adc	r27, r27
    1742:	aa 0f       	add	r26, r26
    1744:	bb 1f       	adc	r27, r27
    1746:	8f 70       	andi	r24, 0x0F	; 15
    1748:	a8 2b       	or	r26, r24
    174a:	ac 5e       	subi	r26, 0xEC	; 236
    174c:	bf 4a       	sbci	r27, 0xAF	; 175
    174e:	ec 5e       	subi	r30, 0xEC	; 236
    1750:	ff 4a       	sbci	r31, 0xAF	; 175
    1752:	9c 91       	ld	r25, X
    1754:	80 81       	ld	r24, Z
    1756:	89 27       	eor	r24, r25
    1758:	80 83       	st	Z, r24
    175a:	68 2f       	mov	r22, r24
    175c:	70 e0       	ldi	r23, 0x00	; 0
    175e:	60 93 12 50 	sts	0x5012, r22	; 0x805012 <result>
    1762:	70 93 13 50 	sts	0x5013, r23	; 0x805013 <result+0x1>
    1766:	50 91 0b 40 	lds	r21, 0x400B	; 0x80400b <newStatus+0x1>
    176a:	98 2f       	mov	r25, r24
    176c:	99 1f       	adc	r25, r25
    176e:	99 27       	eor	r25, r25
    1770:	99 1f       	adc	r25, r25
    1772:	49 2f       	mov	r20, r25
    1774:	47 95       	ror	r20
    1776:	44 27       	eor	r20, r20
    1778:	47 95       	ror	r20
    177a:	85 2f       	mov	r24, r21
    177c:	8f 70       	andi	r24, 0x0F	; 15
    177e:	84 2b       	or	r24, r20
    1780:	80 93 0b 40 	sts	0x400B, r24	; 0x80400b <newStatus+0x1>
    1784:	80 91 0c 40 	lds	r24, 0x400C	; 0x80400c <newStatus+0x2>
    1788:	8c 7f       	andi	r24, 0xFC	; 252
    178a:	80 93 0c 40 	sts	0x400C, r24	; 0x80400c <newStatus+0x2>
    178e:	81 e0       	ldi	r24, 0x01	; 1
    1790:	67 2b       	or	r22, r23
    1792:	09 f0       	breq	.+2      	; 0x1796 <fetch+0x1208>
    1794:	80 e0       	ldi	r24, 0x00	; 0
    1796:	88 0f       	add	r24, r24
    1798:	88 0f       	add	r24, r24
    179a:	40 91 0c 40 	lds	r20, 0x400C	; 0x80400c <newStatus+0x2>
    179e:	43 7e       	andi	r20, 0xE3	; 227
    17a0:	84 2b       	or	r24, r20
    17a2:	80 93 0c 40 	sts	0x400C, r24	; 0x80400c <newStatus+0x2>
    17a6:	81 e0       	ldi	r24, 0x01	; 1
    17a8:	19 16       	cp	r1, r25
    17aa:	0c f0       	brlt	.+2      	; 0x17ae <fetch+0x1220>
    17ac:	bb c5       	rjmp	.+2934   	; 0x2324 <fetch+0x1d96>
    17ae:	88 0f       	add	r24, r24
    17b0:	40 91 0b 40 	lds	r20, 0x400B	; 0x80400b <newStatus+0x1>
    17b4:	41 7f       	andi	r20, 0xF1	; 241
    17b6:	84 2b       	or	r24, r20
    17b8:	80 93 0b 40 	sts	0x400B, r24	; 0x80400b <newStatus+0x1>
    17bc:	2e 5f       	subi	r18, 0xFE	; 254
    17be:	3f 4f       	sbci	r19, 0xFF	; 255
    17c0:	20 93 10 50 	sts	0x5010, r18	; 0x805010 <PC>
    17c4:	30 93 11 50 	sts	0x5011, r19	; 0x805011 <PC+0x1>
    17c8:	e2 e0       	ldi	r30, 0x02	; 2
    17ca:	0c 94 b2 03 	jmp	0x764	; 0x764 <fetch+0x1d6>
    17ce:	11 96       	adiw	r26, 0x01	; 1
    17d0:	8c 91       	ld	r24, X
    17d2:	09 2f       	mov	r16, r25
    17d4:	01 70       	andi	r16, 0x01	; 1
    17d6:	0f 8b       	std	Y+23, r16	; 0x17
    17d8:	18 8e       	std	Y+24, r1	; 0x18
    17da:	af 89       	ldd	r26, Y+23	; 0x17
    17dc:	b8 8d       	ldd	r27, Y+24	; 0x18
    17de:	a2 95       	swap	r26
    17e0:	b2 95       	swap	r27
    17e2:	b0 7f       	andi	r27, 0xF0	; 240
    17e4:	ba 27       	eor	r27, r26
    17e6:	a0 7f       	andi	r26, 0xF0	; 240
    17e8:	ba 27       	eor	r27, r26
    17ea:	48 2f       	mov	r20, r24
    17ec:	42 95       	swap	r20
    17ee:	4f 70       	andi	r20, 0x0F	; 15
    17f0:	a4 2b       	or	r26, r20
    17f2:	ac 5e       	subi	r26, 0xEC	; 236
    17f4:	bf 4a       	sbci	r27, 0xAF	; 175
    17f6:	4c 91       	ld	r20, X
    17f8:	96 95       	lsr	r25
    17fa:	91 70       	andi	r25, 0x01	; 1
    17fc:	99 8f       	std	Y+25, r25	; 0x19
    17fe:	1a 8e       	std	Y+26, r1	; 0x1a
    1800:	e9 8d       	ldd	r30, Y+25	; 0x19
    1802:	fa 8d       	ldd	r31, Y+26	; 0x1a
    1804:	e2 95       	swap	r30
    1806:	f2 95       	swap	r31
    1808:	f0 7f       	andi	r31, 0xF0	; 240
    180a:	fe 27       	eor	r31, r30
    180c:	e0 7f       	andi	r30, 0xF0	; 240
    180e:	fe 27       	eor	r31, r30
    1810:	8f 70       	andi	r24, 0x0F	; 15
    1812:	e8 2b       	or	r30, r24
    1814:	ec 5e       	subi	r30, 0xEC	; 236
    1816:	ff 4a       	sbci	r31, 0xAF	; 175
    1818:	80 81       	ld	r24, Z
    181a:	68 2f       	mov	r22, r24
    181c:	70 e0       	ldi	r23, 0x00	; 0
    181e:	64 0f       	add	r22, r20
    1820:	71 1d       	adc	r23, r1
    1822:	69 83       	std	Y+1, r22	; 0x01
    1824:	7a 83       	std	Y+2, r23	; 0x02
    1826:	90 91 0f 50 	lds	r25, 0x500F	; 0x80500f <SREG_status+0x2>
    182a:	90 7e       	andi	r25, 0xE0	; 224
    182c:	61 e0       	ldi	r22, 0x01	; 1
    182e:	70 e0       	ldi	r23, 0x00	; 0
    1830:	90 32       	cpi	r25, 0x20	; 32
    1832:	11 f0       	breq	.+4      	; 0x1838 <fetch+0x12aa>
    1834:	60 e0       	ldi	r22, 0x00	; 0
    1836:	70 e0       	ldi	r23, 0x00	; 0
    1838:	e9 81       	ldd	r30, Y+1	; 0x01
    183a:	fa 81       	ldd	r31, Y+2	; 0x02
    183c:	6e 0f       	add	r22, r30
    183e:	7f 1f       	adc	r23, r31
    1840:	60 93 12 50 	sts	0x5012, r22	; 0x805012 <result>
    1844:	70 93 13 50 	sts	0x5013, r23	; 0x805013 <result+0x1>
    1848:	94 2f       	mov	r25, r20
    184a:	9f 70       	andi	r25, 0x0F	; 15
    184c:	e8 2f       	mov	r30, r24
    184e:	ef 70       	andi	r30, 0x0F	; 15
    1850:	f0 e0       	ldi	r31, 0x00	; 0
    1852:	e9 0f       	add	r30, r25
    1854:	f1 1d       	adc	r31, r1
    1856:	f2 95       	swap	r31
    1858:	e2 95       	swap	r30
    185a:	ef 70       	andi	r30, 0x0F	; 15
    185c:	ef 27       	eor	r30, r31
    185e:	ff 70       	andi	r31, 0x0F	; 15
    1860:	ef 27       	eor	r30, r31
    1862:	e1 70       	andi	r30, 0x01	; 1
    1864:	5e 2f       	mov	r21, r30
    1866:	52 95       	swap	r21
    1868:	55 0f       	add	r21, r21
    186a:	55 0f       	add	r21, r21
    186c:	50 7c       	andi	r21, 0xC0	; 192
    186e:	90 91 0a 40 	lds	r25, 0x400A	; 0x80400a <newStatus>
    1872:	9f 73       	andi	r25, 0x3F	; 63
    1874:	95 2b       	or	r25, r21
    1876:	90 93 0a 40 	sts	0x400A, r25	; 0x80400a <newStatus>
    187a:	90 91 0b 40 	lds	r25, 0x400B	; 0x80400b <newStatus+0x1>
    187e:	9e 7f       	andi	r25, 0xFE	; 254
    1880:	90 93 0b 40 	sts	0x400B, r25	; 0x80400b <newStatus+0x1>
    1884:	80 78       	andi	r24, 0x80	; 128
    1886:	47 fd       	sbrc	r20, 7
    1888:	02 c0       	rjmp	.+4      	; 0x188e <fetch+0x1300>
    188a:	0c 94 b3 1f 	jmp	0x3f66	; 0x3f66 <fetch+0x39d8>
    188e:	88 23       	and	r24, r24
    1890:	11 f4       	brne	.+4      	; 0x1896 <fetch+0x1308>
    1892:	0c 94 6e 1c 	jmp	0x38dc	; 0x38dc <fetch+0x334e>
    1896:	41 e0       	ldi	r20, 0x01	; 1
    1898:	f9 81       	ldd	r31, Y+1	; 0x01
    189a:	f7 fd       	sbrc	r31, 7
    189c:	40 e0       	ldi	r20, 0x00	; 0
    189e:	42 95       	swap	r20
    18a0:	44 0f       	add	r20, r20
    18a2:	40 7e       	andi	r20, 0xE0	; 224
    18a4:	45 95       	asr	r20
    18a6:	45 95       	asr	r20
    18a8:	45 95       	asr	r20
    18aa:	45 95       	asr	r20
    18ac:	45 95       	asr	r20
    18ae:	84 2f       	mov	r24, r20
    18b0:	87 70       	andi	r24, 0x07	; 7
    18b2:	58 2f       	mov	r21, r24
    18b4:	52 95       	swap	r21
    18b6:	50 7f       	andi	r21, 0xF0	; 240
    18b8:	80 91 0b 40 	lds	r24, 0x400B	; 0x80400b <newStatus+0x1>
    18bc:	8f 70       	andi	r24, 0x0F	; 15
    18be:	89 83       	std	Y+1, r24	; 0x01
    18c0:	cb 01       	movw	r24, r22
    18c2:	88 0f       	add	r24, r24
    18c4:	89 2f       	mov	r24, r25
    18c6:	88 1f       	adc	r24, r24
    18c8:	99 0b       	sbc	r25, r25
    18ca:	91 95       	neg	r25
    18cc:	98 2f       	mov	r25, r24
    18ce:	91 70       	andi	r25, 0x01	; 1
    18d0:	f9 2f       	mov	r31, r25
    18d2:	f7 95       	ror	r31
    18d4:	ff 27       	eor	r31, r31
    18d6:	f7 95       	ror	r31
    18d8:	89 81       	ldd	r24, Y+1	; 0x01
    18da:	85 2b       	or	r24, r21
    18dc:	8f 2b       	or	r24, r31
    18de:	80 93 0b 40 	sts	0x400B, r24	; 0x80400b <newStatus+0x1>
    18e2:	80 91 0c 40 	lds	r24, 0x400C	; 0x80400c <newStatus+0x2>
    18e6:	8c 7f       	andi	r24, 0xFC	; 252
    18e8:	80 93 0c 40 	sts	0x400C, r24	; 0x80400c <newStatus+0x2>
    18ec:	81 e0       	ldi	r24, 0x01	; 1
    18ee:	61 15       	cp	r22, r1
    18f0:	71 05       	cpc	r23, r1
    18f2:	09 f0       	breq	.+2      	; 0x18f6 <fetch+0x1368>
    18f4:	80 e0       	ldi	r24, 0x00	; 0
    18f6:	88 0f       	add	r24, r24
    18f8:	88 0f       	add	r24, r24
    18fa:	50 91 0c 40 	lds	r21, 0x400C	; 0x80400c <newStatus+0x2>
    18fe:	53 7e       	andi	r21, 0xE3	; 227
    1900:	85 2b       	or	r24, r21
    1902:	80 93 0c 40 	sts	0x400C, r24	; 0x80400c <newStatus+0x2>
    1906:	49 27       	eor	r20, r25
    1908:	81 e0       	ldi	r24, 0x01	; 1
    190a:	14 16       	cp	r1, r20
    190c:	14 f0       	brlt	.+4      	; 0x1912 <fetch+0x1384>
    190e:	0c 94 f8 1d 	jmp	0x3bf0	; 0x3bf0 <fetch+0x3662>
    1912:	88 0f       	add	r24, r24
    1914:	40 91 0b 40 	lds	r20, 0x400B	; 0x80400b <newStatus+0x1>
    1918:	41 7f       	andi	r20, 0xF1	; 241
    191a:	84 2b       	or	r24, r20
    191c:	80 93 0b 40 	sts	0x400B, r24	; 0x80400b <newStatus+0x1>
    1920:	81 e0       	ldi	r24, 0x01	; 1
    1922:	6f 3f       	cpi	r22, 0xFF	; 255
    1924:	71 05       	cpc	r23, r1
    1926:	09 f0       	breq	.+2      	; 0x192a <fetch+0x139c>
    1928:	08 f4       	brcc	.+2      	; 0x192c <fetch+0x139e>
    192a:	80 e0       	ldi	r24, 0x00	; 0
    192c:	82 95       	swap	r24
    192e:	88 0f       	add	r24, r24
    1930:	80 7e       	andi	r24, 0xE0	; 224
    1932:	40 91 0c 40 	lds	r20, 0x400C	; 0x80400c <newStatus+0x2>
    1936:	4f 71       	andi	r20, 0x1F	; 31
    1938:	84 2b       	or	r24, r20
    193a:	80 93 0c 40 	sts	0x400C, r24	; 0x80400c <newStatus+0x2>
    193e:	6c 93       	st	X, r22
    1940:	2e 5f       	subi	r18, 0xFE	; 254
    1942:	3f 4f       	sbci	r19, 0xFF	; 255
    1944:	20 93 10 50 	sts	0x5010, r18	; 0x805010 <PC>
    1948:	30 93 11 50 	sts	0x5011, r19	; 0x805011 <PC+0x1>
    194c:	0c 94 b2 03 	jmp	0x764	; 0x764 <fetch+0x1d6>
    1950:	11 96       	adiw	r26, 0x01	; 1
    1952:	8c 91       	ld	r24, X
    1954:	49 2f       	mov	r20, r25
    1956:	41 70       	andi	r20, 0x01	; 1
    1958:	4b 8b       	std	Y+19, r20	; 0x13
    195a:	1c 8a       	std	Y+20, r1	; 0x14
    195c:	ab 89       	ldd	r26, Y+19	; 0x13
    195e:	bc 89       	ldd	r27, Y+20	; 0x14
    1960:	a2 95       	swap	r26
    1962:	b2 95       	swap	r27
    1964:	b0 7f       	andi	r27, 0xF0	; 240
    1966:	ba 27       	eor	r27, r26
    1968:	a0 7f       	andi	r26, 0xF0	; 240
    196a:	ba 27       	eor	r27, r26
    196c:	48 2f       	mov	r20, r24
    196e:	42 95       	swap	r20
    1970:	4f 70       	andi	r20, 0x0F	; 15
    1972:	a4 2b       	or	r26, r20
    1974:	ac 5e       	subi	r26, 0xEC	; 236
    1976:	bf 4a       	sbci	r27, 0xAF	; 175
    1978:	6c 91       	ld	r22, X
    197a:	96 95       	lsr	r25
    197c:	91 70       	andi	r25, 0x01	; 1
    197e:	9d 8b       	std	Y+21, r25	; 0x15
    1980:	1e 8a       	std	Y+22, r1	; 0x16
    1982:	ed 89       	ldd	r30, Y+21	; 0x15
    1984:	fe 89       	ldd	r31, Y+22	; 0x16
    1986:	e2 95       	swap	r30
    1988:	f2 95       	swap	r31
    198a:	f0 7f       	andi	r31, 0xF0	; 240
    198c:	fe 27       	eor	r31, r30
    198e:	e0 7f       	andi	r30, 0xF0	; 240
    1990:	fe 27       	eor	r31, r30
    1992:	8f 70       	andi	r24, 0x0F	; 15
    1994:	e8 2b       	or	r30, r24
    1996:	ec 5e       	subi	r30, 0xEC	; 236
    1998:	ff 4a       	sbci	r31, 0xAF	; 175
    199a:	f0 81       	ld	r31, Z
    199c:	46 2f       	mov	r20, r22
    199e:	50 e0       	ldi	r21, 0x00	; 0
    19a0:	4f 1b       	sub	r20, r31
    19a2:	51 09       	sbc	r21, r1
    19a4:	40 93 12 50 	sts	0x5012, r20	; 0x805012 <result>
    19a8:	50 93 13 50 	sts	0x5013, r21	; 0x805013 <result+0x1>
    19ac:	16 2f       	mov	r17, r22
    19ae:	1f 1b       	sub	r17, r31
    19b0:	f3 fb       	bst	r31, 3
    19b2:	77 27       	eor	r23, r23
    19b4:	70 f9       	bld	r23, 0
    19b6:	13 fb       	bst	r17, 3
    19b8:	88 27       	eor	r24, r24
    19ba:	80 f9       	bld	r24, 0
    19bc:	89 83       	std	Y+1, r24	; 0x01
    19be:	63 fb       	bst	r22, 3
    19c0:	88 27       	eor	r24, r24
    19c2:	80 f9       	bld	r24, 0
    19c4:	91 e0       	ldi	r25, 0x01	; 1
    19c6:	89 27       	eor	r24, r25
    19c8:	e9 81       	ldd	r30, Y+1	; 0x01
    19ca:	e8 2b       	or	r30, r24
    19cc:	9e 2f       	mov	r25, r30
    19ce:	97 23       	and	r25, r23
    19d0:	e9 81       	ldd	r30, Y+1	; 0x01
    19d2:	8e 23       	and	r24, r30
    19d4:	e9 2f       	mov	r30, r25
    19d6:	e8 2b       	or	r30, r24
    19d8:	9e 2f       	mov	r25, r30
    19da:	92 95       	swap	r25
    19dc:	99 0f       	add	r25, r25
    19de:	99 0f       	add	r25, r25
    19e0:	90 7c       	andi	r25, 0xC0	; 192
    19e2:	80 91 0a 40 	lds	r24, 0x400A	; 0x80400a <newStatus>
    19e6:	8f 73       	andi	r24, 0x3F	; 63
    19e8:	89 2b       	or	r24, r25
    19ea:	80 93 0a 40 	sts	0x400A, r24	; 0x80400a <newStatus>
    19ee:	80 91 0b 40 	lds	r24, 0x400B	; 0x80400b <newStatus+0x1>
    19f2:	8e 7f       	andi	r24, 0xFE	; 254
    19f4:	80 93 0b 40 	sts	0x400B, r24	; 0x80400b <newStatus+0x1>
    19f8:	8f 2f       	mov	r24, r31
    19fa:	80 78       	andi	r24, 0x80	; 128
    19fc:	67 fd       	sbrc	r22, 7
    19fe:	02 c0       	rjmp	.+4      	; 0x1a04 <fetch+0x1476>
    1a00:	0c 94 95 1d 	jmp	0x3b2a	; 0x3b2a <fetch+0x359c>
    1a04:	88 23       	and	r24, r24
    1a06:	11 f4       	brne	.+4      	; 0x1a0c <fetch+0x147e>
    1a08:	0c 94 3f 1e 	jmp	0x3c7e	; 0x3c7e <fetch+0x36f0>
    1a0c:	19 82       	std	Y+1, r1	; 0x01
    1a0e:	ca 01       	movw	r24, r20
    1a10:	88 0f       	add	r24, r24
    1a12:	89 2f       	mov	r24, r25
    1a14:	88 1f       	adc	r24, r24
    1a16:	99 0b       	sbc	r25, r25
    1a18:	91 95       	neg	r25
    1a1a:	79 81       	ldd	r23, Y+1	; 0x01
    1a1c:	d9 80       	ldd	r13, Y+1	; 0x01
    1a1e:	77 70       	andi	r23, 0x07	; 7
    1a20:	72 95       	swap	r23
    1a22:	70 7f       	andi	r23, 0xF0	; 240
    1a24:	00 91 0b 40 	lds	r16, 0x400B	; 0x80400b <newStatus+0x1>
    1a28:	0f 70       	andi	r16, 0x0F	; 15
    1a2a:	98 2f       	mov	r25, r24
    1a2c:	91 70       	andi	r25, 0x01	; 1
    1a2e:	c9 2e       	mov	r12, r25
    1a30:	c7 94       	ror	r12
    1a32:	cc 24       	eor	r12, r12
    1a34:	c7 94       	ror	r12
    1a36:	80 2f       	mov	r24, r16
    1a38:	87 2b       	or	r24, r23
    1a3a:	8c 29       	or	r24, r12
    1a3c:	80 93 0b 40 	sts	0x400B, r24	; 0x80400b <newStatus+0x1>
    1a40:	80 91 0c 40 	lds	r24, 0x400C	; 0x80400c <newStatus+0x2>
    1a44:	8c 7f       	andi	r24, 0xFC	; 252
    1a46:	80 93 0c 40 	sts	0x400C, r24	; 0x80400c <newStatus+0x2>
    1a4a:	d9 26       	eor	r13, r25
    1a4c:	81 e0       	ldi	r24, 0x01	; 1
    1a4e:	1d 14       	cp	r1, r13
    1a50:	14 f0       	brlt	.+4      	; 0x1a56 <fetch+0x14c8>
    1a52:	0c 94 e3 1d 	jmp	0x3bc6	; 0x3bc6 <fetch+0x3638>
    1a56:	88 0f       	add	r24, r24
    1a58:	70 91 0b 40 	lds	r23, 0x400B	; 0x80400b <newStatus+0x1>
    1a5c:	71 7f       	andi	r23, 0xF1	; 241
    1a5e:	87 2b       	or	r24, r23
    1a60:	80 93 0b 40 	sts	0x400B, r24	; 0x80400b <newStatus+0x1>
    1a64:	81 e0       	ldi	r24, 0x01	; 1
    1a66:	45 2b       	or	r20, r21
    1a68:	09 f0       	breq	.+2      	; 0x1a6c <fetch+0x14de>
    1a6a:	80 e0       	ldi	r24, 0x00	; 0
    1a6c:	88 0f       	add	r24, r24
    1a6e:	88 0f       	add	r24, r24
    1a70:	40 91 0c 40 	lds	r20, 0x400C	; 0x80400c <newStatus+0x2>
    1a74:	43 7e       	andi	r20, 0xE3	; 227
    1a76:	84 2b       	or	r24, r20
    1a78:	80 93 0c 40 	sts	0x400C, r24	; 0x80400c <newStatus+0x2>
    1a7c:	81 e0       	ldi	r24, 0x01	; 1
    1a7e:	6f 17       	cp	r22, r31
    1a80:	08 f0       	brcs	.+2      	; 0x1a84 <fetch+0x14f6>
    1a82:	80 e0       	ldi	r24, 0x00	; 0
    1a84:	82 95       	swap	r24
    1a86:	88 0f       	add	r24, r24
    1a88:	80 7e       	andi	r24, 0xE0	; 224
    1a8a:	40 91 0c 40 	lds	r20, 0x400C	; 0x80400c <newStatus+0x2>
    1a8e:	4f 71       	andi	r20, 0x1F	; 31
    1a90:	84 2b       	or	r24, r20
    1a92:	80 93 0c 40 	sts	0x400C, r24	; 0x80400c <newStatus+0x2>
    1a96:	1c 93       	st	X, r17
    1a98:	2e 5f       	subi	r18, 0xFE	; 254
    1a9a:	3f 4f       	sbci	r19, 0xFF	; 255
    1a9c:	20 93 10 50 	sts	0x5010, r18	; 0x805010 <PC>
    1aa0:	30 93 11 50 	sts	0x5011, r19	; 0x805011 <PC+0x1>
    1aa4:	0c 94 b2 03 	jmp	0x764	; 0x764 <fetch+0x1d6>
    1aa8:	11 96       	adiw	r26, 0x01	; 1
    1aaa:	8c 91       	ld	r24, X
    1aac:	90 fb       	bst	r25, 0
    1aae:	22 24       	eor	r2, r2
    1ab0:	20 f8       	bld	r2, 0
    1ab2:	31 2c       	mov	r3, r1
    1ab4:	f1 01       	movw	r30, r2
    1ab6:	e2 95       	swap	r30
    1ab8:	f2 95       	swap	r31
    1aba:	f0 7f       	andi	r31, 0xF0	; 240
    1abc:	fe 27       	eor	r31, r30
    1abe:	e0 7f       	andi	r30, 0xF0	; 240
    1ac0:	fe 27       	eor	r31, r30
    1ac2:	48 2f       	mov	r20, r24
    1ac4:	42 95       	swap	r20
    1ac6:	4f 70       	andi	r20, 0x0F	; 15
    1ac8:	e4 2b       	or	r30, r20
    1aca:	ec 5e       	subi	r30, 0xEC	; 236
    1acc:	ff 4a       	sbci	r31, 0xAF	; 175
    1ace:	a0 81       	ld	r26, Z
    1ad0:	6a 2f       	mov	r22, r26
    1ad2:	70 e0       	ldi	r23, 0x00	; 0
    1ad4:	96 95       	lsr	r25
    1ad6:	91 70       	andi	r25, 0x01	; 1
    1ad8:	99 83       	std	Y+1, r25	; 0x01
    1ada:	1a 82       	std	Y+2, r1	; 0x02
    1adc:	e9 81       	ldd	r30, Y+1	; 0x01
    1ade:	fa 81       	ldd	r31, Y+2	; 0x02
    1ae0:	e2 95       	swap	r30
    1ae2:	f2 95       	swap	r31
    1ae4:	f0 7f       	andi	r31, 0xF0	; 240
    1ae6:	fe 27       	eor	r31, r30
    1ae8:	e0 7f       	andi	r30, 0xF0	; 240
    1aea:	fe 27       	eor	r31, r30
    1aec:	8f 70       	andi	r24, 0x0F	; 15
    1aee:	e8 2b       	or	r30, r24
    1af0:	ec 5e       	subi	r30, 0xEC	; 236
    1af2:	ff 4a       	sbci	r31, 0xAF	; 175
    1af4:	f0 80       	ld	r15, Z
    1af6:	cf 2c       	mov	r12, r15
    1af8:	d1 2c       	mov	r13, r1
    1afa:	c9 82       	std	Y+1, r12	; 0x01
    1afc:	da 82       	std	Y+2, r13	; 0x02
    1afe:	90 91 0f 50 	lds	r25, 0x500F	; 0x80500f <SREG_status+0x2>
    1b02:	09 2f       	mov	r16, r25
    1b04:	00 7e       	andi	r16, 0xE0	; 224
    1b06:	e0 2e       	mov	r14, r16
    1b08:	81 e0       	ldi	r24, 0x01	; 1
    1b0a:	10 e2       	ldi	r17, 0x20	; 32
    1b0c:	01 13       	cpse	r16, r17
    1b0e:	80 e0       	ldi	r24, 0x00	; 0
    1b10:	08 2f       	mov	r16, r24
    1b12:	10 e0       	ldi	r17, 0x00	; 0
    1b14:	ab 01       	movw	r20, r22
    1b16:	e9 81       	ldd	r30, Y+1	; 0x01
    1b18:	fa 81       	ldd	r31, Y+2	; 0x02
    1b1a:	4e 1b       	sub	r20, r30
    1b1c:	5f 0b       	sbc	r21, r31
    1b1e:	40 1b       	sub	r20, r16
    1b20:	51 0b       	sbc	r21, r17
    1b22:	40 93 12 50 	sts	0x5012, r20	; 0x805012 <result>
    1b26:	50 93 13 50 	sts	0x5013, r21	; 0x805013 <result+0x1>
    1b2a:	95 95       	asr	r25
    1b2c:	95 95       	asr	r25
    1b2e:	95 95       	asr	r25
    1b30:	95 95       	asr	r25
    1b32:	95 95       	asr	r25
    1b34:	e9 0f       	add	r30, r25
    1b36:	f1 1d       	adc	r31, r1
    1b38:	97 fd       	sbrc	r25, 7
    1b3a:	fa 95       	dec	r31
    1b3c:	91 e0       	ldi	r25, 0x01	; 1
    1b3e:	31 97       	sbiw	r30, 0x01	; 1
    1b40:	09 f0       	breq	.+2      	; 0x1b44 <fetch+0x15b6>
    1b42:	90 e0       	ldi	r25, 0x00	; 0
    1b44:	ea 2f       	mov	r30, r26
    1b46:	e9 1b       	sub	r30, r25
    1b48:	e3 fb       	bst	r30, 3
    1b4a:	ff 27       	eor	r31, r31
    1b4c:	f0 f9       	bld	r31, 0
    1b4e:	a3 fb       	bst	r26, 3
    1b50:	ee 27       	eor	r30, r30
    1b52:	e0 f9       	bld	r30, 0
    1b54:	91 e0       	ldi	r25, 0x01	; 1
    1b56:	e9 27       	eor	r30, r25
    1b58:	ef 23       	and	r30, r31
    1b5a:	fe 2f       	mov	r31, r30
    1b5c:	f2 95       	swap	r31
    1b5e:	ff 0f       	add	r31, r31
    1b60:	ff 0f       	add	r31, r31
    1b62:	f0 7c       	andi	r31, 0xC0	; 192
    1b64:	90 91 0a 40 	lds	r25, 0x400A	; 0x80400a <newStatus>
    1b68:	9f 73       	andi	r25, 0x3F	; 63
    1b6a:	9f 2b       	or	r25, r31
    1b6c:	90 93 0a 40 	sts	0x400A, r25	; 0x80400a <newStatus>
    1b70:	90 91 0b 40 	lds	r25, 0x400B	; 0x80400b <newStatus+0x1>
    1b74:	9e 7f       	andi	r25, 0xFE	; 254
    1b76:	90 93 0b 40 	sts	0x400B, r25	; 0x80400b <newStatus+0x1>
    1b7a:	8f 0d       	add	r24, r15
    1b7c:	98 2f       	mov	r25, r24
    1b7e:	90 78       	andi	r25, 0x80	; 128
    1b80:	a7 fd       	sbrc	r26, 7
    1b82:	02 c0       	rjmp	.+4      	; 0x1b88 <fetch+0x15fa>
    1b84:	0c 94 56 1d 	jmp	0x3aac	; 0x3aac <fetch+0x351e>
    1b88:	99 23       	and	r25, r25
    1b8a:	09 f4       	brne	.+2      	; 0x1b8e <fetch+0x1600>
    1b8c:	fd c6       	rjmp	.+3578   	; 0x2988 <fetch+0x23fa>
    1b8e:	b0 e0       	ldi	r27, 0x00	; 0
    1b90:	8b 2f       	mov	r24, r27
    1b92:	87 70       	andi	r24, 0x07	; 7
    1b94:	f8 2f       	mov	r31, r24
    1b96:	f2 95       	swap	r31
    1b98:	f0 7f       	andi	r31, 0xF0	; 240
    1b9a:	80 91 0b 40 	lds	r24, 0x400B	; 0x80400b <newStatus+0x1>
    1b9e:	8f 70       	andi	r24, 0x0F	; 15
    1ba0:	c8 2e       	mov	r12, r24
    1ba2:	ca 01       	movw	r24, r20
    1ba4:	88 0f       	add	r24, r24
    1ba6:	89 2f       	mov	r24, r25
    1ba8:	88 1f       	adc	r24, r24
    1baa:	99 0b       	sbc	r25, r25
    1bac:	91 95       	neg	r25
    1bae:	98 2f       	mov	r25, r24
    1bb0:	91 70       	andi	r25, 0x01	; 1
    1bb2:	d9 2e       	mov	r13, r25
    1bb4:	d7 94       	ror	r13
    1bb6:	dd 24       	eor	r13, r13
    1bb8:	d7 94       	ror	r13
    1bba:	8c 2d       	mov	r24, r12
    1bbc:	8f 2b       	or	r24, r31
    1bbe:	8d 29       	or	r24, r13
    1bc0:	80 93 0b 40 	sts	0x400B, r24	; 0x80400b <newStatus+0x1>
    1bc4:	80 91 0c 40 	lds	r24, 0x400C	; 0x80400c <newStatus+0x2>
    1bc8:	8c 7f       	andi	r24, 0xFC	; 252
    1bca:	80 93 0c 40 	sts	0x400C, r24	; 0x80400c <newStatus+0x2>
    1bce:	45 2b       	or	r20, r21
    1bd0:	11 f4       	brne	.+4      	; 0x1bd6 <fetch+0x1648>
    1bd2:	0c 94 a7 18 	jmp	0x314e	; 0x314e <fetch+0x2bc0>
    1bd6:	80 e0       	ldi	r24, 0x00	; 0
    1bd8:	48 2f       	mov	r20, r24
    1bda:	44 0f       	add	r20, r20
    1bdc:	44 0f       	add	r20, r20
    1bde:	80 91 0c 40 	lds	r24, 0x400C	; 0x80400c <newStatus+0x2>
    1be2:	83 7e       	andi	r24, 0xE3	; 227
    1be4:	84 2b       	or	r24, r20
    1be6:	80 93 0c 40 	sts	0x400C, r24	; 0x80400c <newStatus+0x2>
    1bea:	49 81       	ldd	r20, Y+1	; 0x01
    1bec:	5a 81       	ldd	r21, Y+2	; 0x02
    1bee:	40 0f       	add	r20, r16
    1bf0:	51 1f       	adc	r21, r17
    1bf2:	81 e0       	ldi	r24, 0x01	; 1
    1bf4:	64 17       	cp	r22, r20
    1bf6:	75 07       	cpc	r23, r21
    1bf8:	0c f0       	brlt	.+2      	; 0x1bfc <fetch+0x166e>
    1bfa:	80 e0       	ldi	r24, 0x00	; 0
    1bfc:	82 95       	swap	r24
    1bfe:	88 0f       	add	r24, r24
    1c00:	80 7e       	andi	r24, 0xE0	; 224
    1c02:	40 91 0c 40 	lds	r20, 0x400C	; 0x80400c <newStatus+0x2>
    1c06:	4f 71       	andi	r20, 0x1F	; 31
    1c08:	84 2b       	or	r24, r20
    1c0a:	80 93 0c 40 	sts	0x400C, r24	; 0x80400c <newStatus+0x2>
    1c0e:	a7 ff       	sbrs	r26, 7
    1c10:	02 c0       	rjmp	.+4      	; 0x1c16 <fetch+0x1688>
    1c12:	0c 94 c2 1c 	jmp	0x3984	; 0x3984 <fetch+0x33f6>
    1c16:	5f e7       	ldi	r21, 0x7F	; 127
    1c18:	f5 16       	cp	r15, r21
    1c1a:	11 f4       	brne	.+4      	; 0x1c20 <fetch+0x1692>
    1c1c:	0c 94 fb 1d 	jmp	0x3bf6	; 0x3bf6 <fetch+0x3668>
    1c20:	b9 27       	eor	r27, r25
    1c22:	81 e0       	ldi	r24, 0x01	; 1
    1c24:	1b 16       	cp	r1, r27
    1c26:	0c f4       	brge	.+2      	; 0x1c2a <fetch+0x169c>
    1c28:	c6 ca       	rjmp	.-2676   	; 0x11b6 <fetch+0xc28>
    1c2a:	80 e0       	ldi	r24, 0x00	; 0
    1c2c:	c4 ca       	rjmp	.-2680   	; 0x11b6 <fetch+0xc28>
    1c2e:	11 96       	adiw	r26, 0x01	; 1
    1c30:	ec 91       	ld	r30, X
    1c32:	ae 2f       	mov	r26, r30
    1c34:	a2 95       	swap	r26
    1c36:	af 70       	andi	r26, 0x0F	; 15
    1c38:	b0 e0       	ldi	r27, 0x00	; 0
    1c3a:	aa 0f       	add	r26, r26
    1c3c:	bb 1f       	adc	r27, r27
    1c3e:	ac 5e       	subi	r26, 0xEC	; 236
    1c40:	bf 4a       	sbci	r27, 0xAF	; 175
    1c42:	8c 91       	ld	r24, X
    1c44:	ef 70       	andi	r30, 0x0F	; 15
    1c46:	f0 e0       	ldi	r31, 0x00	; 0
    1c48:	ee 0f       	add	r30, r30
    1c4a:	ff 1f       	adc	r31, r31
    1c4c:	ec 5e       	subi	r30, 0xEC	; 236
    1c4e:	ff 4a       	sbci	r31, 0xAF	; 175
    1c50:	90 81       	ld	r25, Z
    1c52:	89 9f       	mul	r24, r25
    1c54:	c0 01       	movw	r24, r0
    1c56:	11 24       	eor	r1, r1
    1c58:	80 93 12 50 	sts	0x5012, r24	; 0x805012 <result>
    1c5c:	90 93 13 50 	sts	0x5013, r25	; 0x805013 <result+0x1>
    1c60:	80 93 14 50 	sts	0x5014, r24	; 0x805014 <ram>
    1c64:	90 93 15 50 	sts	0x5015, r25	; 0x805015 <ram+0x1>
    1c68:	2e 5f       	subi	r18, 0xFE	; 254
    1c6a:	3f 4f       	sbci	r19, 0xFF	; 255
    1c6c:	20 93 10 50 	sts	0x5010, r18	; 0x805010 <PC>
    1c70:	30 93 11 50 	sts	0x5011, r19	; 0x805011 <PC+0x1>
    1c74:	f2 e0       	ldi	r31, 0x02	; 2
    1c76:	8f 0e       	add	r8, r31
    1c78:	91 1c       	adc	r9, r1
    1c7a:	a1 1c       	adc	r10, r1
    1c7c:	b1 1c       	adc	r11, r1
    1c7e:	80 92 14 93 	sts	0x9314, r8	; 0x809314 <totalcycles>
    1c82:	90 92 15 93 	sts	0x9315, r9	; 0x809315 <totalcycles+0x1>
    1c86:	a0 92 16 93 	sts	0x9316, r10	; 0x809316 <totalcycles+0x2>
    1c8a:	b0 92 17 93 	sts	0x9317, r11	; 0x809317 <totalcycles+0x3>
    1c8e:	e2 e0       	ldi	r30, 0x02	; 2
    1c90:	92 e0       	ldi	r25, 0x02	; 2
    1c92:	0c 94 b2 03 	jmp	0x764	; 0x764 <fetch+0x1d6>
    1c96:	11 96       	adiw	r26, 0x01	; 1
    1c98:	ec 91       	ld	r30, X
    1c9a:	ae 2f       	mov	r26, r30
    1c9c:	a2 95       	swap	r26
    1c9e:	af 70       	andi	r26, 0x0F	; 15
    1ca0:	b0 e0       	ldi	r27, 0x00	; 0
    1ca2:	aa 0f       	add	r26, r26
    1ca4:	bb 1f       	adc	r27, r27
    1ca6:	ef 70       	andi	r30, 0x0F	; 15
    1ca8:	f0 e0       	ldi	r31, 0x00	; 0
    1caa:	ee 0f       	add	r30, r30
    1cac:	ff 1f       	adc	r31, r31
    1cae:	ec 5e       	subi	r30, 0xEC	; 236
    1cb0:	ff 4a       	sbci	r31, 0xAF	; 175
    1cb2:	80 81       	ld	r24, Z
    1cb4:	ac 5e       	subi	r26, 0xEC	; 236
    1cb6:	bf 4a       	sbci	r27, 0xAF	; 175
    1cb8:	8c 93       	st	X, r24
    1cba:	81 81       	ldd	r24, Z+1	; 0x01
    1cbc:	11 96       	adiw	r26, 0x01	; 1
    1cbe:	8c 93       	st	X, r24
    1cc0:	0c 94 de 04 	jmp	0x9bc	; 0x9bc <fetch+0x42e>
    1cc4:	11 96       	adiw	r26, 0x01	; 1
    1cc6:	8c 91       	ld	r24, X
    1cc8:	88 23       	and	r24, r24
    1cca:	11 f4       	brne	.+4      	; 0x1cd0 <fetch+0x1742>
    1ccc:	0c 94 de 04 	jmp	0x9bc	; 0x9bc <fetch+0x42e>
    1cd0:	0e 94 57 28 	call	0x50ae	; 0x50ae <abort>
    1cd4:	11 96       	adiw	r26, 0x01	; 1
    1cd6:	8c 91       	ld	r24, X
    1cd8:	11 97       	sbiw	r26, 0x01	; 1
    1cda:	09 2f       	mov	r16, r25
    1cdc:	01 70       	andi	r16, 0x01	; 1
    1cde:	0b 87       	std	Y+11, r16	; 0x0b
    1ce0:	1c 86       	std	Y+12, r1	; 0x0c
    1ce2:	eb 85       	ldd	r30, Y+11	; 0x0b
    1ce4:	fc 85       	ldd	r31, Y+12	; 0x0c
    1ce6:	e2 95       	swap	r30
    1ce8:	f2 95       	swap	r31
    1cea:	f0 7f       	andi	r31, 0xF0	; 240
    1cec:	fe 27       	eor	r31, r30
    1cee:	e0 7f       	andi	r30, 0xF0	; 240
    1cf0:	fe 27       	eor	r31, r30
    1cf2:	48 2f       	mov	r20, r24
    1cf4:	42 95       	swap	r20
    1cf6:	4f 70       	andi	r20, 0x0F	; 15
    1cf8:	e4 2b       	or	r30, r20
    1cfa:	bf 01       	movw	r22, r30
    1cfc:	6c 5e       	subi	r22, 0xEC	; 236
    1cfe:	7f 4a       	sbci	r23, 0xAF	; 175
    1d00:	96 95       	lsr	r25
    1d02:	91 70       	andi	r25, 0x01	; 1
    1d04:	9d 87       	std	Y+13, r25	; 0x0d
    1d06:	1e 86       	std	Y+14, r1	; 0x0e
    1d08:	ed 85       	ldd	r30, Y+13	; 0x0d
    1d0a:	fe 85       	ldd	r31, Y+14	; 0x0e
    1d0c:	e2 95       	swap	r30
    1d0e:	f2 95       	swap	r31
    1d10:	f0 7f       	andi	r31, 0xF0	; 240
    1d12:	fe 27       	eor	r31, r30
    1d14:	e0 7f       	andi	r30, 0xF0	; 240
    1d16:	fe 27       	eor	r31, r30
    1d18:	8f 70       	andi	r24, 0x0F	; 15
    1d1a:	e8 2b       	or	r30, r24
    1d1c:	af 01       	movw	r20, r30
    1d1e:	4c 5e       	subi	r20, 0xEC	; 236
    1d20:	5f 4a       	sbci	r21, 0xAF	; 175
    1d22:	fb 01       	movw	r30, r22
    1d24:	90 81       	ld	r25, Z
    1d26:	fa 01       	movw	r30, r20
    1d28:	80 81       	ld	r24, Z
    1d2a:	98 13       	cpse	r25, r24
    1d2c:	0c 94 a4 03 	jmp	0x748	; 0x748 <fetch+0x1ba>
    1d30:	89 01       	movw	r16, r18
    1d32:	0e 5f       	subi	r16, 0xFE	; 254
    1d34:	1f 4f       	sbci	r17, 0xFF	; 255
    1d36:	b5 01       	movw	r22, r10
    1d38:	a4 01       	movw	r20, r8
    1d3a:	4e 5f       	subi	r20, 0xFE	; 254
    1d3c:	5f 4f       	sbci	r21, 0xFF	; 255
    1d3e:	6f 4f       	sbci	r22, 0xFF	; 255
    1d40:	7f 4f       	sbci	r23, 0xFF	; 255
    1d42:	40 93 14 93 	sts	0x9314, r20	; 0x809314 <totalcycles>
    1d46:	50 93 15 93 	sts	0x9315, r21	; 0x809315 <totalcycles+0x1>
    1d4a:	60 93 16 93 	sts	0x9316, r22	; 0x809316 <totalcycles+0x2>
    1d4e:	70 93 17 93 	sts	0x9317, r23	; 0x809317 <totalcycles+0x3>
    1d52:	13 96       	adiw	r26, 0x03	; 3
    1d54:	9c 91       	ld	r25, X
    1d56:	f8 01       	movw	r30, r16
    1d58:	e3 5f       	subi	r30, 0xF3	; 243
    1d5a:	ff 4b       	sbci	r31, 0xBF	; 191
    1d5c:	80 81       	ld	r24, Z
    1d5e:	84 39       	cpi	r24, 0x94	; 148
    1d60:	10 f0       	brcs	.+4      	; 0x1d66 <fetch+0x17d8>
    1d62:	0c 94 d5 1f 	jmp	0x3faa	; 0x3faa <fetch+0x3a1c>
    1d66:	82 39       	cpi	r24, 0x92	; 146
    1d68:	20 f4       	brcc	.+8      	; 0x1d72 <fetch+0x17e4>
    1d6a:	80 39       	cpi	r24, 0x90	; 144
    1d6c:	10 f4       	brcc	.+4      	; 0x1d72 <fetch+0x17e4>
    1d6e:	0c 94 9e 03 	jmp	0x73c	; 0x73c <fetch+0x1ae>
    1d72:	9f 70       	andi	r25, 0x0F	; 15
    1d74:	11 f0       	breq	.+4      	; 0x1d7a <fetch+0x17ec>
    1d76:	0c 94 9e 03 	jmp	0x73c	; 0x73c <fetch+0x1ae>
    1d7a:	89 01       	movw	r16, r18
    1d7c:	0c 5f       	subi	r16, 0xFC	; 252
    1d7e:	1f 4f       	sbci	r17, 0xFF	; 255
    1d80:	c9 56       	subi	r28, 0x69	; 105
    1d82:	df 4f       	sbci	r29, 0xFF	; 255
    1d84:	08 83       	st	Y, r16
    1d86:	19 83       	std	Y+1, r17	; 0x01
    1d88:	c7 59       	subi	r28, 0x97	; 151
    1d8a:	d0 40       	sbci	r29, 0x00	; 0
    1d8c:	13 e0       	ldi	r17, 0x03	; 3
    1d8e:	81 0e       	add	r8, r17
    1d90:	91 1c       	adc	r9, r1
    1d92:	a1 1c       	adc	r10, r1
    1d94:	b1 1c       	adc	r11, r1
    1d96:	80 92 14 93 	sts	0x9314, r8	; 0x809314 <totalcycles>
    1d9a:	90 92 15 93 	sts	0x9315, r9	; 0x809315 <totalcycles+0x1>
    1d9e:	a0 92 16 93 	sts	0x9316, r10	; 0x809316 <totalcycles+0x2>
    1da2:	b0 92 17 93 	sts	0x9317, r11	; 0x809317 <totalcycles+0x3>
    1da6:	0c 94 a4 03 	jmp	0x748	; 0x748 <fetch+0x1ba>
    1daa:	11 96       	adiw	r26, 0x01	; 1
    1dac:	8c 91       	ld	r24, X
    1dae:	91 fb       	bst	r25, 1
    1db0:	55 27       	eor	r21, r21
    1db2:	50 f9       	bld	r21, 0
    1db4:	5d a3       	std	Y+37, r21	; 0x25
    1db6:	1e a2       	std	Y+38, r1	; 0x26
    1db8:	ed a1       	ldd	r30, Y+37	; 0x25
    1dba:	fe a1       	ldd	r31, Y+38	; 0x26
    1dbc:	e2 95       	swap	r30
    1dbe:	f2 95       	swap	r31
    1dc0:	f0 7f       	andi	r31, 0xF0	; 240
    1dc2:	fe 27       	eor	r31, r30
    1dc4:	e0 7f       	andi	r30, 0xF0	; 240
    1dc6:	fe 27       	eor	r31, r30
    1dc8:	48 2f       	mov	r20, r24
    1dca:	4f 70       	andi	r20, 0x0F	; 15
    1dcc:	e4 2b       	or	r30, r20
    1dce:	ec 5e       	subi	r30, 0xEC	; 236
    1dd0:	ff 4a       	sbci	r31, 0xAF	; 175
    1dd2:	40 81       	ld	r20, Z
    1dd4:	91 70       	andi	r25, 0x01	; 1
    1dd6:	9f a3       	std	Y+39, r25	; 0x27
    1dd8:	18 a6       	std	Y+40, r1	; 0x28
    1dda:	ef a1       	ldd	r30, Y+39	; 0x27
    1ddc:	f8 a5       	ldd	r31, Y+40	; 0x28
    1dde:	e2 95       	swap	r30
    1de0:	f2 95       	swap	r31
    1de2:	f0 7f       	andi	r31, 0xF0	; 240
    1de4:	fe 27       	eor	r31, r30
    1de6:	e0 7f       	andi	r30, 0xF0	; 240
    1de8:	fe 27       	eor	r31, r30
    1dea:	82 95       	swap	r24
    1dec:	8f 70       	andi	r24, 0x0F	; 15
    1dee:	e8 2b       	or	r30, r24
    1df0:	0c 94 17 06 	jmp	0xc2e	; 0xc2e <fetch+0x6a0>
    1df4:	11 96       	adiw	r26, 0x01	; 1
    1df6:	8c 91       	ld	r24, X
    1df8:	49 2f       	mov	r20, r25
    1dfa:	41 70       	andi	r20, 0x01	; 1
    1dfc:	49 a3       	std	Y+33, r20	; 0x21
    1dfe:	1a a2       	std	Y+34, r1	; 0x22
    1e00:	e9 a1       	ldd	r30, Y+33	; 0x21
    1e02:	fa a1       	ldd	r31, Y+34	; 0x22
    1e04:	e2 95       	swap	r30
    1e06:	f2 95       	swap	r31
    1e08:	f0 7f       	andi	r31, 0xF0	; 240
    1e0a:	fe 27       	eor	r31, r30
    1e0c:	e0 7f       	andi	r30, 0xF0	; 240
    1e0e:	fe 27       	eor	r31, r30
    1e10:	48 2f       	mov	r20, r24
    1e12:	42 95       	swap	r20
    1e14:	4f 70       	andi	r20, 0x0F	; 15
    1e16:	e4 2b       	or	r30, r20
    1e18:	96 95       	lsr	r25
    1e1a:	91 70       	andi	r25, 0x01	; 1
    1e1c:	9b a3       	std	Y+35, r25	; 0x23
    1e1e:	1c a2       	std	Y+36, r1	; 0x24
    1e20:	ab a1       	ldd	r26, Y+35	; 0x23
    1e22:	bc a1       	ldd	r27, Y+36	; 0x24
    1e24:	a2 95       	swap	r26
    1e26:	b2 95       	swap	r27
    1e28:	b0 7f       	andi	r27, 0xF0	; 240
    1e2a:	ba 27       	eor	r27, r26
    1e2c:	a0 7f       	andi	r26, 0xF0	; 240
    1e2e:	ba 27       	eor	r27, r26
    1e30:	8f 70       	andi	r24, 0x0F	; 15
    1e32:	a8 2b       	or	r26, r24
    1e34:	ac 5e       	subi	r26, 0xEC	; 236
    1e36:	bf 4a       	sbci	r27, 0xAF	; 175
    1e38:	ec 5e       	subi	r30, 0xEC	; 236
    1e3a:	ff 4a       	sbci	r31, 0xAF	; 175
    1e3c:	9c 91       	ld	r25, X
    1e3e:	80 81       	ld	r24, Z
    1e40:	89 2b       	or	r24, r25
    1e42:	68 2f       	mov	r22, r24
    1e44:	70 e0       	ldi	r23, 0x00	; 0
    1e46:	60 93 12 50 	sts	0x5012, r22	; 0x805012 <result>
    1e4a:	70 93 13 50 	sts	0x5013, r23	; 0x805013 <result+0x1>
    1e4e:	80 83       	st	Z, r24
    1e50:	8a cc       	rjmp	.-1772   	; 0x1766 <fetch+0x11d8>
    1e52:	11 96       	adiw	r26, 0x01	; 1
    1e54:	8c 91       	ld	r24, X
    1e56:	09 2f       	mov	r16, r25
    1e58:	01 70       	andi	r16, 0x01	; 1
    1e5a:	0b 8f       	std	Y+27, r16	; 0x1b
    1e5c:	1c 8e       	std	Y+28, r1	; 0x1c
    1e5e:	eb 8d       	ldd	r30, Y+27	; 0x1b
    1e60:	fc 8d       	ldd	r31, Y+28	; 0x1c
    1e62:	e2 95       	swap	r30
    1e64:	f2 95       	swap	r31
    1e66:	f0 7f       	andi	r31, 0xF0	; 240
    1e68:	fe 27       	eor	r31, r30
    1e6a:	e0 7f       	andi	r30, 0xF0	; 240
    1e6c:	fe 27       	eor	r31, r30
    1e6e:	48 2f       	mov	r20, r24
    1e70:	42 95       	swap	r20
    1e72:	4f 70       	andi	r20, 0x0F	; 15
    1e74:	e4 2b       	or	r30, r20
    1e76:	96 95       	lsr	r25
    1e78:	91 70       	andi	r25, 0x01	; 1
    1e7a:	9d 8f       	std	Y+29, r25	; 0x1d
    1e7c:	1e 8e       	std	Y+30, r1	; 0x1e
    1e7e:	ad 8d       	ldd	r26, Y+29	; 0x1d
    1e80:	be 8d       	ldd	r27, Y+30	; 0x1e
    1e82:	a2 95       	swap	r26
    1e84:	b2 95       	swap	r27
    1e86:	b0 7f       	andi	r27, 0xF0	; 240
    1e88:	ba 27       	eor	r27, r26
    1e8a:	a0 7f       	andi	r26, 0xF0	; 240
    1e8c:	ba 27       	eor	r27, r26
    1e8e:	8f 70       	andi	r24, 0x0F	; 15
    1e90:	a8 2b       	or	r26, r24
    1e92:	ac 5e       	subi	r26, 0xEC	; 236
    1e94:	bf 4a       	sbci	r27, 0xAF	; 175
    1e96:	ec 5e       	subi	r30, 0xEC	; 236
    1e98:	ff 4a       	sbci	r31, 0xAF	; 175
    1e9a:	9c 91       	ld	r25, X
    1e9c:	80 81       	ld	r24, Z
    1e9e:	89 23       	and	r24, r25
    1ea0:	d0 cf       	rjmp	.-96     	; 0x1e42 <fetch+0x18b4>
    1ea2:	11 96       	adiw	r26, 0x01	; 1
    1ea4:	8c 91       	ld	r24, X
    1ea6:	48 2f       	mov	r20, r24
    1ea8:	4f 70       	andi	r20, 0x0F	; 15
    1eaa:	91 70       	andi	r25, 0x01	; 1
    1eac:	48 30       	cpi	r20, 0x08	; 8
    1eae:	10 f4       	brcc	.+4      	; 0x1eb4 <fetch+0x1926>
    1eb0:	0c 94 21 19 	jmp	0x3242	; 0x3242 <fetch+0x2cb4>
    1eb4:	2a 96       	adiw	r28, 0x0a	; 10
    1eb6:	9f af       	std	Y+63, r25	; 0x3f
    1eb8:	2a 97       	sbiw	r28, 0x0a	; 10
    1eba:	2b 96       	adiw	r28, 0x0b	; 11
    1ebc:	1f ae       	std	Y+63, r1	; 0x3f
    1ebe:	2b 97       	sbiw	r28, 0x0b	; 11
    1ec0:	2b 96       	adiw	r28, 0x0b	; 11
    1ec2:	ee ad       	ldd	r30, Y+62	; 0x3e
    1ec4:	ff ad       	ldd	r31, Y+63	; 0x3f
    1ec6:	2b 97       	sbiw	r28, 0x0b	; 11
    1ec8:	e2 95       	swap	r30
    1eca:	f2 95       	swap	r31
    1ecc:	f0 7f       	andi	r31, 0xF0	; 240
    1ece:	fe 27       	eor	r31, r30
    1ed0:	e0 7f       	andi	r30, 0xF0	; 240
    1ed2:	fe 27       	eor	r31, r30
    1ed4:	98 2f       	mov	r25, r24
    1ed6:	92 95       	swap	r25
    1ed8:	9f 70       	andi	r25, 0x0F	; 15
    1eda:	e9 2b       	or	r30, r25
    1edc:	e0 93 12 50 	sts	0x5012, r30	; 0x805012 <result>
    1ee0:	f0 93 13 50 	sts	0x5013, r31	; 0x805013 <result+0x1>
    1ee4:	87 70       	andi	r24, 0x07	; 7
    1ee6:	80 61       	ori	r24, 0x10	; 16
    1ee8:	a0 91 30 50 	lds	r26, 0x5030	; 0x805030 <ram+0x1c>
    1eec:	b0 91 31 50 	lds	r27, 0x5031	; 0x805031 <ram+0x1d>
    1ef0:	bd 01       	movw	r22, r26
    1ef2:	68 0f       	add	r22, r24
    1ef4:	71 1d       	adc	r23, r1
    1ef6:	69 83       	std	Y+1, r22	; 0x01
    1ef8:	7a 83       	std	Y+2, r23	; 0x02
    1efa:	ab 01       	movw	r20, r22
    1efc:	77 0f       	add	r23, r23
    1efe:	66 0b       	sbc	r22, r22
    1f00:	77 0b       	sbc	r23, r23
    1f02:	6a 01       	movw	r12, r20
    1f04:	7b 01       	movw	r14, r22
    1f06:	8f ef       	ldi	r24, 0xFF	; 255
    1f08:	c8 1a       	sub	r12, r24
    1f0a:	8f e1       	ldi	r24, 0x1F	; 31
    1f0c:	d8 0a       	sbc	r13, r24
    1f0e:	e1 08       	sbc	r14, r1
    1f10:	f1 08       	sbc	r15, r1
    1f12:	80 e5       	ldi	r24, 0x50	; 80
    1f14:	90 e4       	ldi	r25, 0x40	; 64
    1f16:	a0 e0       	ldi	r26, 0x00	; 0
    1f18:	b0 e0       	ldi	r27, 0x00	; 0
    1f1a:	84 1b       	sub	r24, r20
    1f1c:	95 0b       	sbc	r25, r21
    1f1e:	a6 0b       	sbc	r26, r22
    1f20:	b7 0b       	sbc	r27, r23
    1f22:	8c 15       	cp	r24, r12
    1f24:	9d 05       	cpc	r25, r13
    1f26:	ae 05       	cpc	r26, r14
    1f28:	bf 05       	cpc	r27, r15
    1f2a:	14 f4       	brge	.+4      	; 0x1f30 <fetch+0x19a2>
    1f2c:	0c 94 5f 19 	jmp	0x32be	; 0x32be <fetch+0x2d30>
    1f30:	a9 81       	ldd	r26, Y+1	; 0x01
    1f32:	ba 81       	ldd	r27, Y+2	; 0x02
    1f34:	8c 91       	ld	r24, X
    1f36:	0c 94 ea 06 	jmp	0xdd4	; 0xdd4 <fetch+0x846>
    1f3a:	11 96       	adiw	r26, 0x01	; 1
    1f3c:	8c 91       	ld	r24, X
    1f3e:	28 2f       	mov	r18, r24
    1f40:	2f 70       	andi	r18, 0x0F	; 15
    1f42:	91 70       	andi	r25, 0x01	; 1
    1f44:	28 30       	cpi	r18, 0x08	; 8
    1f46:	10 f4       	brcc	.+4      	; 0x1f4c <fetch+0x19be>
    1f48:	0c 94 e4 1a 	jmp	0x35c8	; 0x35c8 <fetch+0x303a>
    1f4c:	26 96       	adiw	r28, 0x06	; 6
    1f4e:	9f af       	std	Y+63, r25	; 0x3f
    1f50:	26 97       	sbiw	r28, 0x06	; 6
    1f52:	27 96       	adiw	r28, 0x07	; 7
    1f54:	1f ae       	std	Y+63, r1	; 0x3f
    1f56:	27 97       	sbiw	r28, 0x07	; 7
    1f58:	27 96       	adiw	r28, 0x07	; 7
    1f5a:	ee ad       	ldd	r30, Y+62	; 0x3e
    1f5c:	ff ad       	ldd	r31, Y+63	; 0x3f
    1f5e:	27 97       	sbiw	r28, 0x07	; 7
    1f60:	e2 95       	swap	r30
    1f62:	f2 95       	swap	r31
    1f64:	f0 7f       	andi	r31, 0xF0	; 240
    1f66:	fe 27       	eor	r31, r30
    1f68:	e0 7f       	andi	r30, 0xF0	; 240
    1f6a:	fe 27       	eor	r31, r30
    1f6c:	98 2f       	mov	r25, r24
    1f6e:	92 95       	swap	r25
    1f70:	9f 70       	andi	r25, 0x0F	; 15
    1f72:	e9 2b       	or	r30, r25
    1f74:	ec 5e       	subi	r30, 0xEC	; 236
    1f76:	ff 4a       	sbci	r31, 0xAF	; 175
    1f78:	20 81       	ld	r18, Z
    1f7a:	e2 2f       	mov	r30, r18
    1f7c:	f0 e0       	ldi	r31, 0x00	; 0
    1f7e:	e0 93 12 50 	sts	0x5012, r30	; 0x805012 <result>
    1f82:	f0 93 13 50 	sts	0x5013, r31	; 0x805013 <result+0x1>
    1f86:	87 70       	andi	r24, 0x07	; 7
    1f88:	88 60       	ori	r24, 0x08	; 8
    1f8a:	e0 91 30 50 	lds	r30, 0x5030	; 0x805030 <ram+0x1c>
    1f8e:	f0 91 31 50 	lds	r31, 0x5031	; 0x805031 <ram+0x1d>
    1f92:	e8 0f       	add	r30, r24
    1f94:	f1 1d       	adc	r31, r1
    1f96:	6f 01       	movw	r12, r30
    1f98:	0f 2e       	mov	r0, r31
    1f9a:	00 0c       	add	r0, r0
    1f9c:	ee 08       	sbc	r14, r14
    1f9e:	ff 08       	sbc	r15, r15
    1fa0:	46 01       	movw	r8, r12
    1fa2:	57 01       	movw	r10, r14
    1fa4:	1f ef       	ldi	r17, 0xFF	; 255
    1fa6:	81 1a       	sub	r8, r17
    1fa8:	1f e1       	ldi	r17, 0x1F	; 31
    1faa:	91 0a       	sbc	r9, r17
    1fac:	a1 08       	sbc	r10, r1
    1fae:	b1 08       	sbc	r11, r1
    1fb0:	80 e5       	ldi	r24, 0x50	; 80
    1fb2:	90 e4       	ldi	r25, 0x40	; 64
    1fb4:	a0 e0       	ldi	r26, 0x00	; 0
    1fb6:	b0 e0       	ldi	r27, 0x00	; 0
    1fb8:	8c 19       	sub	r24, r12
    1fba:	9d 09       	sbc	r25, r13
    1fbc:	ae 09       	sbc	r26, r14
    1fbe:	bf 09       	sbc	r27, r15
    1fc0:	88 15       	cp	r24, r8
    1fc2:	99 05       	cpc	r25, r9
    1fc4:	aa 05       	cpc	r26, r10
    1fc6:	bb 05       	cpc	r27, r11
    1fc8:	14 f4       	brge	.+4      	; 0x1fce <fetch+0x1a40>
    1fca:	0c 94 9a 18 	jmp	0x3134	; 0x3134 <fetch+0x2ba6>
    1fce:	20 83       	st	Z, r18
    1fd0:	20 91 10 50 	lds	r18, 0x5010	; 0x805010 <PC>
    1fd4:	30 91 11 50 	lds	r19, 0x5011	; 0x805011 <PC+0x1>
    1fd8:	c9 56       	subi	r28, 0x69	; 105
    1fda:	df 4f       	sbci	r29, 0xFF	; 255
    1fdc:	28 83       	st	Y, r18
    1fde:	39 83       	std	Y+1, r19	; 0x01
    1fe0:	c7 59       	subi	r28, 0x97	; 151
    1fe2:	d0 40       	sbci	r29, 0x00	; 0
    1fe4:	40 91 14 93 	lds	r20, 0x9314	; 0x809314 <totalcycles>
    1fe8:	50 91 15 93 	lds	r21, 0x9315	; 0x809315 <totalcycles+0x1>
    1fec:	60 91 16 93 	lds	r22, 0x9316	; 0x809316 <totalcycles+0x2>
    1ff0:	70 91 17 93 	lds	r23, 0x9317	; 0x809317 <totalcycles+0x3>
    1ff4:	20 91 0b 40 	lds	r18, 0x400B	; 0x80400b <newStatus+0x1>
    1ff8:	92 2f       	mov	r25, r18
    1ffa:	99 1f       	adc	r25, r25
    1ffc:	99 27       	eor	r25, r25
    1ffe:	99 1f       	adc	r25, r25
    2000:	80 91 0c 40 	lds	r24, 0x400C	; 0x80400c <newStatus+0x2>
    2004:	83 70       	andi	r24, 0x03	; 3
    2006:	88 0f       	add	r24, r24
    2008:	89 2b       	or	r24, r25
    200a:	82 95       	swap	r24
    200c:	88 0f       	add	r24, r24
    200e:	80 7e       	andi	r24, 0xE0	; 224
    2010:	98 2f       	mov	r25, r24
    2012:	95 95       	asr	r25
    2014:	95 95       	asr	r25
    2016:	95 95       	asr	r25
    2018:	95 95       	asr	r25
    201a:	95 95       	asr	r25
    201c:	e0 91 0a 40 	lds	r30, 0x400A	; 0x80400a <newStatus>
    2020:	8e 2f       	mov	r24, r30
    2022:	82 95       	swap	r24
    2024:	86 95       	lsr	r24
    2026:	86 95       	lsr	r24
    2028:	83 70       	andi	r24, 0x03	; 3
    202a:	e2 2f       	mov	r30, r18
    202c:	e1 70       	andi	r30, 0x01	; 1
    202e:	ee 0f       	add	r30, r30
    2030:	ee 0f       	add	r30, r30
    2032:	e8 2b       	or	r30, r24
    2034:	e2 95       	swap	r30
    2036:	ee 0f       	add	r30, r30
    2038:	e0 7e       	andi	r30, 0xE0	; 224
    203a:	e5 95       	asr	r30
    203c:	e5 95       	asr	r30
    203e:	e5 95       	asr	r30
    2040:	e5 95       	asr	r30
    2042:	e5 95       	asr	r30
    2044:	c9 56       	subi	r28, 0x69	; 105
    2046:	df 4f       	sbci	r29, 0xFF	; 255
    2048:	08 81       	ld	r16, Y
    204a:	19 81       	ldd	r17, Y+1	; 0x01
    204c:	c7 59       	subi	r28, 0x97	; 151
    204e:	d0 40       	sbci	r29, 0x00	; 0
    2050:	0e 5f       	subi	r16, 0xFE	; 254
    2052:	1f 4f       	sbci	r17, 0xFF	; 255
    2054:	00 93 10 50 	sts	0x5010, r16	; 0x805010 <PC>
    2058:	10 93 11 50 	sts	0x5011, r17	; 0x805011 <PC+0x1>
    205c:	4f 5f       	subi	r20, 0xFF	; 255
    205e:	5f 4f       	sbci	r21, 0xFF	; 255
    2060:	6f 4f       	sbci	r22, 0xFF	; 255
    2062:	7f 4f       	sbci	r23, 0xFF	; 255
    2064:	40 93 14 93 	sts	0x9314, r20	; 0x809314 <totalcycles>
    2068:	50 93 15 93 	sts	0x9315, r21	; 0x809315 <totalcycles+0x1>
    206c:	60 93 16 93 	sts	0x9316, r22	; 0x809316 <totalcycles+0x2>
    2070:	70 93 17 93 	sts	0x9317, r23	; 0x809317 <totalcycles+0x3>
    2074:	0c 94 b2 03 	jmp	0x764	; 0x764 <fetch+0x1d6>
    2078:	11 96       	adiw	r26, 0x01	; 1
    207a:	4c 91       	ld	r20, X
    207c:	94 39       	cpi	r25, 0x94	; 148
    207e:	11 f4       	brne	.+4      	; 0x2084 <fetch+0x1af6>
    2080:	0c 94 a8 1c 	jmp	0x3950	; 0x3950 <fetch+0x33c2>
    2084:	84 2f       	mov	r24, r20
    2086:	8f 7d       	andi	r24, 0xDF	; 223
    2088:	88 38       	cpi	r24, 0x88	; 136
    208a:	11 f4       	brne	.+4      	; 0x2090 <fetch+0x1b02>
    208c:	0c 94 de 04 	jmp	0x9bc	; 0x9bc <fetch+0x42e>
    2090:	48 30       	cpi	r20, 0x08	; 8
    2092:	11 f4       	brne	.+4      	; 0x2098 <fetch+0x1b0a>
    2094:	0c 94 01 25 	jmp	0x4a02	; 0x4a02 <fetch+0x4474>
    2098:	49 30       	cpi	r20, 0x09	; 9
    209a:	11 f4       	brne	.+4      	; 0x20a0 <fetch+0x1b12>
    209c:	0c 94 81 25 	jmp	0x4b02	; 0x4b02 <fetch+0x4574>
    20a0:	48 31       	cpi	r20, 0x18	; 24
    20a2:	11 f4       	brne	.+4      	; 0x20a8 <fetch+0x1b1a>
    20a4:	0c 94 40 25 	jmp	0x4a80	; 0x4a80 <fetch+0x44f2>
    20a8:	84 2f       	mov	r24, r20
    20aa:	8f 70       	andi	r24, 0x0F	; 15
    20ac:	c8 2e       	mov	r12, r24
    20ae:	d1 2c       	mov	r13, r1
    20b0:	f6 01       	movw	r30, r12
    20b2:	88 27       	eor	r24, r24
    20b4:	e2 50       	subi	r30, 0x02	; 2
    20b6:	fe 4f       	sbci	r31, 0xFE	; 254
    20b8:	8f 4f       	sbci	r24, 0xFF	; 255
    20ba:	0c 94 4f 28 	jmp	0x509e	; 0x509e <__tablejump2__>
    20be:	f9 01       	movw	r30, r18
    20c0:	e2 5f       	subi	r30, 0xF2	; 242
    20c2:	ff 4b       	sbci	r31, 0xBF	; 191
    20c4:	3f 01       	movw	r6, r30
    20c6:	80 81       	ld	r24, Z
    20c8:	e8 2f       	mov	r30, r24
    20ca:	ef 70       	andi	r30, 0x0F	; 15
    20cc:	11 f0       	breq	.+4      	; 0x20d2 <fetch+0x1b44>
    20ce:	0c 94 31 1b 	jmp	0x3662	; 0x3662 <fetch+0x30d4>
    20d2:	79 01       	movw	r14, r18
    20d4:	f3 e0       	ldi	r31, 0x03	; 3
    20d6:	ef 0e       	add	r14, r31
    20d8:	f1 1c       	adc	r15, r1
    20da:	2e 5f       	subi	r18, 0xFE	; 254
    20dc:	3f 4f       	sbci	r19, 0xFF	; 255
    20de:	89 01       	movw	r16, r18
    20e0:	00 0f       	add	r16, r16
    20e2:	11 1f       	adc	r17, r17
    20e4:	f8 01       	movw	r30, r16
    20e6:	e6 5f       	subi	r30, 0xF6	; 246
    20e8:	ff 4d       	sbci	r31, 0xDF	; 223
    20ea:	6f 01       	movw	r12, r30
    20ec:	00 81       	ld	r16, Z
    20ee:	11 81       	ldd	r17, Z+1	; 0x01
    20f0:	01 2b       	or	r16, r17
    20f2:	11 f4       	brne	.+4      	; 0x20f8 <fetch+0x1b6a>
    20f4:	0c 94 94 1e 	jmp	0x3d28	; 0x3d28 <fetch+0x379a>
    20f8:	89 01       	movw	r16, r18
    20fa:	03 5f       	subi	r16, 0xF3	; 243
    20fc:	1f 4b       	sbci	r17, 0xBF	; 191
    20fe:	97 01       	movw	r18, r14
    2100:	23 5f       	subi	r18, 0xF3	; 243
    2102:	3f 4b       	sbci	r19, 0xBF	; 191
    2104:	91 70       	andi	r25, 0x01	; 1
    2106:	64 96       	adiw	r28, 0x14	; 20
    2108:	9f af       	std	Y+63, r25	; 0x3f
    210a:	64 97       	sbiw	r28, 0x14	; 20
    210c:	65 96       	adiw	r28, 0x15	; 21
    210e:	1f ae       	std	Y+63, r1	; 0x3f
    2110:	65 97       	sbiw	r28, 0x15	; 21
    2112:	65 96       	adiw	r28, 0x15	; 21
    2114:	ae ad       	ldd	r26, Y+62	; 0x3e
    2116:	bf ad       	ldd	r27, Y+63	; 0x3f
    2118:	65 97       	sbiw	r28, 0x15	; 21
    211a:	a2 95       	swap	r26
    211c:	b2 95       	swap	r27
    211e:	b0 7f       	andi	r27, 0xF0	; 240
    2120:	ba 27       	eor	r27, r26
    2122:	a0 7f       	andi	r26, 0xF0	; 240
    2124:	ba 27       	eor	r27, r26
    2126:	82 95       	swap	r24
    2128:	8f 70       	andi	r24, 0x0F	; 15
    212a:	a8 2b       	or	r26, r24
    212c:	ac 5e       	subi	r26, 0xEC	; 236
    212e:	bf 4a       	sbci	r27, 0xAF	; 175
    2130:	ac 91       	ld	r26, X
    2132:	f8 01       	movw	r30, r16
    2134:	80 81       	ld	r24, Z
    2136:	90 e0       	ldi	r25, 0x00	; 0
    2138:	98 2f       	mov	r25, r24
    213a:	88 27       	eor	r24, r24
    213c:	f9 01       	movw	r30, r18
    213e:	20 81       	ld	r18, Z
    2140:	fc 01       	movw	r30, r24
    2142:	e2 2b       	or	r30, r18
    2144:	4f 01       	movw	r8, r30
    2146:	0f 2e       	mov	r0, r31
    2148:	00 0c       	add	r0, r0
    214a:	aa 08       	sbc	r10, r10
    214c:	bb 08       	sbc	r11, r11
    214e:	24 01       	movw	r4, r8
    2150:	35 01       	movw	r6, r10
    2152:	0f ef       	ldi	r16, 0xFF	; 255
    2154:	40 1a       	sub	r4, r16
    2156:	0f e1       	ldi	r16, 0x1F	; 31
    2158:	50 0a       	sbc	r5, r16
    215a:	61 08       	sbc	r6, r1
    215c:	71 08       	sbc	r7, r1
    215e:	b0 e5       	ldi	r27, 0x50	; 80
    2160:	cb 2e       	mov	r12, r27
    2162:	b0 e4       	ldi	r27, 0x40	; 64
    2164:	db 2e       	mov	r13, r27
    2166:	e1 2c       	mov	r14, r1
    2168:	f1 2c       	mov	r15, r1
    216a:	c8 18       	sub	r12, r8
    216c:	d9 08       	sbc	r13, r9
    216e:	ea 08       	sbc	r14, r10
    2170:	fb 08       	sbc	r15, r11
    2172:	c4 14       	cp	r12, r4
    2174:	d5 04       	cpc	r13, r5
    2176:	e6 04       	cpc	r14, r6
    2178:	f7 04       	cpc	r15, r7
    217a:	14 f4       	brge	.+4      	; 0x2180 <fetch+0x1bf2>
    217c:	0c 94 00 1d 	jmp	0x3a00	; 0x3a00 <fetch+0x3472>
    2180:	a0 83       	st	Z, r26
    2182:	20 91 10 50 	lds	r18, 0x5010	; 0x805010 <PC>
    2186:	30 91 11 50 	lds	r19, 0x5011	; 0x805011 <PC+0x1>
    218a:	c9 56       	subi	r28, 0x69	; 105
    218c:	df 4f       	sbci	r29, 0xFF	; 255
    218e:	28 83       	st	Y, r18
    2190:	39 83       	std	Y+1, r19	; 0x01
    2192:	c7 59       	subi	r28, 0x97	; 151
    2194:	d0 40       	sbci	r29, 0x00	; 0
    2196:	40 91 14 93 	lds	r20, 0x9314	; 0x809314 <totalcycles>
    219a:	50 91 15 93 	lds	r21, 0x9315	; 0x809315 <totalcycles+0x1>
    219e:	60 91 16 93 	lds	r22, 0x9316	; 0x809316 <totalcycles+0x2>
    21a2:	70 91 17 93 	lds	r23, 0x9317	; 0x809317 <totalcycles+0x3>
    21a6:	20 91 0b 40 	lds	r18, 0x400B	; 0x80400b <newStatus+0x1>
    21aa:	92 2f       	mov	r25, r18
    21ac:	99 1f       	adc	r25, r25
    21ae:	99 27       	eor	r25, r25
    21b0:	99 1f       	adc	r25, r25
    21b2:	80 91 0c 40 	lds	r24, 0x400C	; 0x80400c <newStatus+0x2>
    21b6:	83 70       	andi	r24, 0x03	; 3
    21b8:	88 0f       	add	r24, r24
    21ba:	89 2b       	or	r24, r25
    21bc:	82 95       	swap	r24
    21be:	88 0f       	add	r24, r24
    21c0:	80 7e       	andi	r24, 0xE0	; 224
    21c2:	98 2f       	mov	r25, r24
    21c4:	95 95       	asr	r25
    21c6:	95 95       	asr	r25
    21c8:	95 95       	asr	r25
    21ca:	95 95       	asr	r25
    21cc:	95 95       	asr	r25
    21ce:	e0 91 0a 40 	lds	r30, 0x400A	; 0x80400a <newStatus>
    21d2:	8e 2f       	mov	r24, r30
    21d4:	82 95       	swap	r24
    21d6:	86 95       	lsr	r24
    21d8:	86 95       	lsr	r24
    21da:	83 70       	andi	r24, 0x03	; 3
    21dc:	e2 2f       	mov	r30, r18
    21de:	e1 70       	andi	r30, 0x01	; 1
    21e0:	ee 0f       	add	r30, r30
    21e2:	ee 0f       	add	r30, r30
    21e4:	e8 2b       	or	r30, r24
    21e6:	e2 95       	swap	r30
    21e8:	ee 0f       	add	r30, r30
    21ea:	e0 7e       	andi	r30, 0xE0	; 224
    21ec:	e5 95       	asr	r30
    21ee:	e5 95       	asr	r30
    21f0:	e5 95       	asr	r30
    21f2:	e5 95       	asr	r30
    21f4:	e5 95       	asr	r30
    21f6:	c9 56       	subi	r28, 0x69	; 105
    21f8:	df 4f       	sbci	r29, 0xFF	; 255
    21fa:	08 81       	ld	r16, Y
    21fc:	19 81       	ldd	r17, Y+1	; 0x01
    21fe:	c7 59       	subi	r28, 0x97	; 151
    2200:	d0 40       	sbci	r29, 0x00	; 0
    2202:	0c 5f       	subi	r16, 0xFC	; 252
    2204:	1f 4f       	sbci	r17, 0xFF	; 255
    2206:	00 93 10 50 	sts	0x5010, r16	; 0x805010 <PC>
    220a:	10 93 11 50 	sts	0x5011, r17	; 0x805011 <PC+0x1>
    220e:	4f 5f       	subi	r20, 0xFF	; 255
    2210:	5f 4f       	sbci	r21, 0xFF	; 255
    2212:	6f 4f       	sbci	r22, 0xFF	; 255
    2214:	7f 4f       	sbci	r23, 0xFF	; 255
    2216:	40 93 14 93 	sts	0x9314, r20	; 0x809314 <totalcycles>
    221a:	50 93 15 93 	sts	0x9315, r21	; 0x809315 <totalcycles+0x1>
    221e:	60 93 16 93 	sts	0x9316, r22	; 0x809316 <totalcycles+0x2>
    2222:	70 93 17 93 	sts	0x9317, r23	; 0x809317 <totalcycles+0x3>
    2226:	0c 94 b2 03 	jmp	0x764	; 0x764 <fetch+0x1d6>
    222a:	11 96       	adiw	r26, 0x01	; 1
    222c:	8c 91       	ld	r24, X
    222e:	48 2f       	mov	r20, r24
    2230:	4f 70       	andi	r20, 0x0F	; 15
    2232:	91 70       	andi	r25, 0x01	; 1
    2234:	48 30       	cpi	r20, 0x08	; 8
    2236:	10 f4       	brcc	.+4      	; 0x223c <fetch+0x1cae>
    2238:	0c 94 ac 1a 	jmp	0x3558	; 0x3558 <fetch+0x2fca>
    223c:	99 af       	std	Y+57, r25	; 0x39
    223e:	1a ae       	std	Y+58, r1	; 0x3a
    2240:	e9 ad       	ldd	r30, Y+57	; 0x39
    2242:	fa ad       	ldd	r31, Y+58	; 0x3a
    2244:	e2 95       	swap	r30
    2246:	f2 95       	swap	r31
    2248:	f0 7f       	andi	r31, 0xF0	; 240
    224a:	fe 27       	eor	r31, r30
    224c:	e0 7f       	andi	r30, 0xF0	; 240
    224e:	fe 27       	eor	r31, r30
    2250:	98 2f       	mov	r25, r24
    2252:	92 95       	swap	r25
    2254:	9f 70       	andi	r25, 0x0F	; 15
    2256:	e9 2b       	or	r30, r25
    2258:	e0 93 12 50 	sts	0x5012, r30	; 0x805012 <result>
    225c:	f0 93 13 50 	sts	0x5013, r31	; 0x805013 <result+0x1>
    2260:	87 70       	andi	r24, 0x07	; 7
    2262:	a0 91 30 50 	lds	r26, 0x5030	; 0x805030 <ram+0x1c>
    2266:	b0 91 31 50 	lds	r27, 0x5031	; 0x805031 <ram+0x1d>
    226a:	a8 0f       	add	r26, r24
    226c:	b1 1d       	adc	r27, r1
    226e:	6d 01       	movw	r12, r26
    2270:	0b 2e       	mov	r0, r27
    2272:	00 0c       	add	r0, r0
    2274:	ee 08       	sbc	r14, r14
    2276:	ff 08       	sbc	r15, r15
    2278:	46 01       	movw	r8, r12
    227a:	57 01       	movw	r10, r14
    227c:	4f ef       	ldi	r20, 0xFF	; 255
    227e:	84 1a       	sub	r8, r20
    2280:	4f e1       	ldi	r20, 0x1F	; 31
    2282:	94 0a       	sbc	r9, r20
    2284:	a1 08       	sbc	r10, r1
    2286:	b1 08       	sbc	r11, r1
    2288:	40 e5       	ldi	r20, 0x50	; 80
    228a:	50 e4       	ldi	r21, 0x40	; 64
    228c:	60 e0       	ldi	r22, 0x00	; 0
    228e:	70 e0       	ldi	r23, 0x00	; 0
    2290:	4c 19       	sub	r20, r12
    2292:	5d 09       	sbc	r21, r13
    2294:	6e 09       	sbc	r22, r14
    2296:	7f 09       	sbc	r23, r15
    2298:	48 15       	cp	r20, r8
    229a:	59 05       	cpc	r21, r9
    229c:	6a 05       	cpc	r22, r10
    229e:	7b 05       	cpc	r23, r11
    22a0:	14 f4       	brge	.+4      	; 0x22a6 <fetch+0x1d18>
    22a2:	ac 5e       	subi	r26, 0xEC	; 236
    22a4:	bf 4a       	sbci	r27, 0xAF	; 175
    22a6:	8c 91       	ld	r24, X
    22a8:	0c 94 ea 06 	jmp	0xdd4	; 0xdd4 <fetch+0x846>
    22ac:	11 96       	adiw	r26, 0x01	; 1
    22ae:	4c 91       	ld	r20, X
    22b0:	e4 2f       	mov	r30, r20
    22b2:	e2 95       	swap	r30
    22b4:	ef 70       	andi	r30, 0x0F	; 15
    22b6:	f0 e0       	ldi	r31, 0x00	; 0
    22b8:	00 e1       	ldi	r16, 0x10	; 16
    22ba:	90 9f       	mul	r25, r16
    22bc:	c0 01       	movw	r24, r0
    22be:	11 24       	eor	r1, r1
    22c0:	99 27       	eor	r25, r25
    22c2:	4f 70       	andi	r20, 0x0F	; 15
    22c4:	84 2b       	or	r24, r20
    22c6:	ec 5d       	subi	r30, 0xDC	; 220
    22c8:	ff 4a       	sbci	r31, 0xAF	; 175
    22ca:	90 81       	ld	r25, Z
    22cc:	89 2b       	or	r24, r25
    22ce:	80 83       	st	Z, r24
    22d0:	48 2f       	mov	r20, r24
    22d2:	50 e0       	ldi	r21, 0x00	; 0
    22d4:	40 93 12 50 	sts	0x5012, r20	; 0x805012 <result>
    22d8:	50 93 13 50 	sts	0x5013, r21	; 0x805013 <result+0x1>
    22dc:	98 2f       	mov	r25, r24
    22de:	99 1f       	adc	r25, r25
    22e0:	99 27       	eor	r25, r25
    22e2:	99 1f       	adc	r25, r25
    22e4:	80 91 0b 40 	lds	r24, 0x400B	; 0x80400b <newStatus+0x1>
    22e8:	90 fb       	bst	r25, 0
    22ea:	87 f9       	bld	r24, 7
    22ec:	80 93 0b 40 	sts	0x400B, r24	; 0x80400b <newStatus+0x1>
    22f0:	80 91 0c 40 	lds	r24, 0x400C	; 0x80400c <newStatus+0x2>
    22f4:	8c 7f       	andi	r24, 0xFC	; 252
    22f6:	80 93 0c 40 	sts	0x400C, r24	; 0x80400c <newStatus+0x2>
    22fa:	81 e0       	ldi	r24, 0x01	; 1
    22fc:	45 2b       	or	r20, r21
    22fe:	09 f0       	breq	.+2      	; 0x2302 <fetch+0x1d74>
    2300:	80 e0       	ldi	r24, 0x00	; 0
    2302:	88 0f       	add	r24, r24
    2304:	88 0f       	add	r24, r24
    2306:	40 91 0c 40 	lds	r20, 0x400C	; 0x80400c <newStatus+0x2>
    230a:	43 7e       	andi	r20, 0xE3	; 227
    230c:	84 2b       	or	r24, r20
    230e:	80 93 0c 40 	sts	0x400C, r24	; 0x80400c <newStatus+0x2>
    2312:	80 91 0b 40 	lds	r24, 0x400B	; 0x80400b <newStatus+0x1>
    2316:	8f 78       	andi	r24, 0x8F	; 143
    2318:	80 93 0b 40 	sts	0x400B, r24	; 0x80400b <newStatus+0x1>
    231c:	81 e0       	ldi	r24, 0x01	; 1
    231e:	19 16       	cp	r1, r25
    2320:	0c f4       	brge	.+2      	; 0x2324 <fetch+0x1d96>
    2322:	45 ca       	rjmp	.-2934   	; 0x17ae <fetch+0x1220>
    2324:	80 e0       	ldi	r24, 0x00	; 0
    2326:	43 ca       	rjmp	.-2938   	; 0x17ae <fetch+0x1220>
    2328:	11 96       	adiw	r26, 0x01	; 1
    232a:	ac 91       	ld	r26, X
    232c:	00 e1       	ldi	r16, 0x10	; 16
    232e:	90 9f       	mul	r25, r16
    2330:	a0 01       	movw	r20, r0
    2332:	11 24       	eor	r1, r1
    2334:	55 27       	eor	r21, r21
    2336:	8a 2f       	mov	r24, r26
    2338:	8f 70       	andi	r24, 0x0F	; 15
    233a:	48 2b       	or	r20, r24
    233c:	a2 95       	swap	r26
    233e:	af 70       	andi	r26, 0x0F	; 15
    2340:	b0 e0       	ldi	r27, 0x00	; 0
    2342:	ac 5d       	subi	r26, 0xDC	; 220
    2344:	bf 4a       	sbci	r27, 0xAF	; 175
    2346:	fc 91       	ld	r31, X
    2348:	9f 2f       	mov	r25, r31
    234a:	94 1b       	sub	r25, r20
    234c:	43 fb       	bst	r20, 3
    234e:	ee 27       	eor	r30, r30
    2350:	e0 f9       	bld	r30, 0
    2352:	93 fb       	bst	r25, 3
    2354:	77 27       	eor	r23, r23
    2356:	70 f9       	bld	r23, 0
    2358:	f3 fb       	bst	r31, 3
    235a:	88 27       	eor	r24, r24
    235c:	80 f9       	bld	r24, 0
    235e:	61 e0       	ldi	r22, 0x01	; 1
    2360:	68 27       	eor	r22, r24
    2362:	87 2f       	mov	r24, r23
    2364:	8e 2b       	or	r24, r30
    2366:	68 23       	and	r22, r24
    2368:	e7 23       	and	r30, r23
    236a:	e6 2b       	or	r30, r22
    236c:	7e 2f       	mov	r23, r30
    236e:	72 95       	swap	r23
    2370:	77 0f       	add	r23, r23
    2372:	77 0f       	add	r23, r23
    2374:	70 7c       	andi	r23, 0xC0	; 192
    2376:	60 91 0a 40 	lds	r22, 0x400A	; 0x80400a <newStatus>
    237a:	6f 73       	andi	r22, 0x3F	; 63
    237c:	67 2b       	or	r22, r23
    237e:	60 93 0a 40 	sts	0x400A, r22	; 0x80400a <newStatus>
    2382:	60 91 0b 40 	lds	r22, 0x400B	; 0x80400b <newStatus+0x1>
    2386:	6e 7f       	andi	r22, 0xFE	; 254
    2388:	60 93 0b 40 	sts	0x400B, r22	; 0x80400b <newStatus+0x1>
    238c:	84 2f       	mov	r24, r20
    238e:	80 78       	andi	r24, 0x80	; 128
    2390:	f7 fd       	sbrc	r31, 7
    2392:	02 c0       	rjmp	.+4      	; 0x2398 <fetch+0x1e0a>
    2394:	0c 94 bf 1f 	jmp	0x3f7e	; 0x3f7e <fetch+0x39f0>
    2398:	88 23       	and	r24, r24
    239a:	11 f4       	brne	.+4      	; 0x23a0 <fetch+0x1e12>
    239c:	0c 94 3a 1e 	jmp	0x3c74	; 0x3c74 <fetch+0x36e6>
    23a0:	cf 2e       	mov	r12, r31
    23a2:	d1 2c       	mov	r13, r1
    23a4:	c9 82       	std	Y+1, r12	; 0x01
    23a6:	da 82       	std	Y+2, r13	; 0x02
    23a8:	b6 01       	movw	r22, r12
    23aa:	64 0f       	add	r22, r20
    23ac:	75 1f       	adc	r23, r21
    23ae:	81 e0       	ldi	r24, 0x01	; 1
    23b0:	67 fd       	sbrc	r22, 7
    23b2:	80 e0       	ldi	r24, 0x00	; 0
    23b4:	82 95       	swap	r24
    23b6:	88 0f       	add	r24, r24
    23b8:	80 7e       	andi	r24, 0xE0	; 224
    23ba:	85 95       	asr	r24
    23bc:	85 95       	asr	r24
    23be:	85 95       	asr	r24
    23c0:	85 95       	asr	r24
    23c2:	85 95       	asr	r24
    23c4:	c9 80       	ldd	r12, Y+1	; 0x01
    23c6:	da 80       	ldd	r13, Y+2	; 0x02
    23c8:	68 2f       	mov	r22, r24
    23ca:	67 70       	andi	r22, 0x07	; 7
    23cc:	76 2f       	mov	r23, r22
    23ce:	72 95       	swap	r23
    23d0:	70 7f       	andi	r23, 0xF0	; 240
    23d2:	60 91 0b 40 	lds	r22, 0x400B	; 0x80400b <newStatus+0x1>
    23d6:	6f 78       	andi	r22, 0x8F	; 143
    23d8:	67 2b       	or	r22, r23
    23da:	60 93 0b 40 	sts	0x400B, r22	; 0x80400b <newStatus+0x1>
    23de:	61 e0       	ldi	r22, 0x01	; 1
    23e0:	c4 16       	cp	r12, r20
    23e2:	d5 06       	cpc	r13, r21
    23e4:	0c f0       	brlt	.+2      	; 0x23e8 <fetch+0x1e5a>
    23e6:	60 e0       	ldi	r22, 0x00	; 0
    23e8:	62 95       	swap	r22
    23ea:	66 0f       	add	r22, r22
    23ec:	60 7e       	andi	r22, 0xE0	; 224
    23ee:	40 91 0c 40 	lds	r20, 0x400C	; 0x80400c <newStatus+0x2>
    23f2:	4c 71       	andi	r20, 0x1C	; 28
    23f4:	9c 93       	st	X, r25
    23f6:	a9 2f       	mov	r26, r25
    23f8:	b0 e0       	ldi	r27, 0x00	; 0
    23fa:	a0 93 12 50 	sts	0x5012, r26	; 0x805012 <result>
    23fe:	b0 93 13 50 	sts	0x5013, r27	; 0x805013 <result+0x1>
    2402:	99 1f       	adc	r25, r25
    2404:	99 27       	eor	r25, r25
    2406:	99 1f       	adc	r25, r25
    2408:	50 91 0b 40 	lds	r21, 0x400B	; 0x80400b <newStatus+0x1>
    240c:	90 fb       	bst	r25, 0
    240e:	57 f9       	bld	r21, 7
    2410:	50 93 0b 40 	sts	0x400B, r21	; 0x80400b <newStatus+0x1>
    2414:	64 2b       	or	r22, r20
    2416:	60 93 0c 40 	sts	0x400C, r22	; 0x80400c <newStatus+0x2>
    241a:	41 e0       	ldi	r20, 0x01	; 1
    241c:	ab 2b       	or	r26, r27
    241e:	09 f0       	breq	.+2      	; 0x2422 <fetch+0x1e94>
    2420:	40 e0       	ldi	r20, 0x00	; 0
    2422:	44 0f       	add	r20, r20
    2424:	44 0f       	add	r20, r20
    2426:	50 91 0c 40 	lds	r21, 0x400C	; 0x80400c <newStatus+0x2>
    242a:	53 7e       	andi	r21, 0xE3	; 227
    242c:	45 2b       	or	r20, r21
    242e:	40 93 0c 40 	sts	0x400C, r20	; 0x80400c <newStatus+0x2>
    2432:	89 27       	eor	r24, r25
    2434:	41 e0       	ldi	r20, 0x01	; 1
    2436:	18 16       	cp	r1, r24
    2438:	14 f0       	brlt	.+4      	; 0x243e <fetch+0x1eb0>
    243a:	0c 94 ec 1d 	jmp	0x3bd8	; 0x3bd8 <fetch+0x364a>
    243e:	44 0f       	add	r20, r20
    2440:	80 91 0b 40 	lds	r24, 0x400B	; 0x80400b <newStatus+0x1>
    2444:	81 7f       	andi	r24, 0xF1	; 241
    2446:	48 2b       	or	r20, r24
    2448:	40 93 0b 40 	sts	0x400B, r20	; 0x80400b <newStatus+0x1>
    244c:	2e 5f       	subi	r18, 0xFE	; 254
    244e:	3f 4f       	sbci	r19, 0xFF	; 255
    2450:	20 93 10 50 	sts	0x5010, r18	; 0x805010 <PC>
    2454:	30 93 11 50 	sts	0x5011, r19	; 0x805011 <PC+0x1>
    2458:	0c 94 b2 03 	jmp	0x764	; 0x764 <fetch+0x1d6>
    245c:	11 96       	adiw	r26, 0x01	; 1
    245e:	ec 91       	ld	r30, X
    2460:	4e 2f       	mov	r20, r30
    2462:	47 70       	andi	r20, 0x07	; 7
    2464:	81 e0       	ldi	r24, 0x01	; 1
    2466:	90 e0       	ldi	r25, 0x00	; 0
    2468:	02 c0       	rjmp	.+4      	; 0x246e <fetch+0x1ee0>
    246a:	88 0f       	add	r24, r24
    246c:	99 1f       	adc	r25, r25
    246e:	4a 95       	dec	r20
    2470:	e2 f7       	brpl	.-8      	; 0x246a <fetch+0x1edc>
    2472:	80 93 12 50 	sts	0x5012, r24	; 0x805012 <result>
    2476:	90 93 13 50 	sts	0x5013, r25	; 0x805013 <result+0x1>
    247a:	e6 95       	lsr	r30
    247c:	e6 95       	lsr	r30
    247e:	e6 95       	lsr	r30
    2480:	f0 e0       	ldi	r31, 0x00	; 0
    2482:	ec 5c       	subi	r30, 0xCC	; 204
    2484:	ff 4a       	sbci	r31, 0xAF	; 175
    2486:	80 95       	com	r24
    2488:	90 81       	ld	r25, Z
    248a:	89 23       	and	r24, r25
    248c:	80 83       	st	Z, r24
    248e:	2e 5f       	subi	r18, 0xFE	; 254
    2490:	3f 4f       	sbci	r19, 0xFF	; 255
    2492:	20 93 10 50 	sts	0x5010, r18	; 0x805010 <PC>
    2496:	30 93 11 50 	sts	0x5011, r19	; 0x805011 <PC+0x1>
    249a:	b2 e0       	ldi	r27, 0x02	; 2
    249c:	8b 0e       	add	r8, r27
    249e:	91 1c       	adc	r9, r1
    24a0:	a1 1c       	adc	r10, r1
    24a2:	b1 1c       	adc	r11, r1
    24a4:	80 92 14 93 	sts	0x9314, r8	; 0x809314 <totalcycles>
    24a8:	90 92 15 93 	sts	0x9315, r9	; 0x809315 <totalcycles+0x1>
    24ac:	a0 92 16 93 	sts	0x9316, r10	; 0x809316 <totalcycles+0x2>
    24b0:	b0 92 17 93 	sts	0x9317, r11	; 0x809317 <totalcycles+0x3>
    24b4:	e2 e0       	ldi	r30, 0x02	; 2
    24b6:	92 e0       	ldi	r25, 0x02	; 2
    24b8:	0c 94 b2 03 	jmp	0x764	; 0x764 <fetch+0x1d6>
    24bc:	11 96       	adiw	r26, 0x01	; 1
    24be:	8c 91       	ld	r24, X
    24c0:	48 2f       	mov	r20, r24
    24c2:	4f 70       	andi	r20, 0x0F	; 15
    24c4:	48 30       	cpi	r20, 0x08	; 8
    24c6:	08 f4       	brcc	.+2      	; 0x24ca <fetch+0x1f3c>
    24c8:	01 c7       	rjmp	.+3586   	; 0x32cc <fetch+0x2d3e>
    24ca:	09 2f       	mov	r16, r25
    24cc:	01 70       	andi	r16, 0x01	; 1
    24ce:	22 96       	adiw	r28, 0x02	; 2
    24d0:	0f af       	std	Y+63, r16	; 0x3f
    24d2:	22 97       	sbiw	r28, 0x02	; 2
    24d4:	23 96       	adiw	r28, 0x03	; 3
    24d6:	1f ae       	std	Y+63, r1	; 0x3f
    24d8:	23 97       	sbiw	r28, 0x03	; 3
    24da:	23 96       	adiw	r28, 0x03	; 3
    24dc:	ee ad       	ldd	r30, Y+62	; 0x3e
    24de:	ff ad       	ldd	r31, Y+63	; 0x3f
    24e0:	23 97       	sbiw	r28, 0x03	; 3
    24e2:	e2 95       	swap	r30
    24e4:	f2 95       	swap	r31
    24e6:	f0 7f       	andi	r31, 0xF0	; 240
    24e8:	fe 27       	eor	r31, r30
    24ea:	e0 7f       	andi	r30, 0xF0	; 240
    24ec:	fe 27       	eor	r31, r30
    24ee:	48 2f       	mov	r20, r24
    24f0:	42 95       	swap	r20
    24f2:	4f 70       	andi	r20, 0x0F	; 15
    24f4:	e4 2b       	or	r30, r20
    24f6:	e0 93 12 50 	sts	0x5012, r30	; 0x805012 <result>
    24fa:	f0 93 13 50 	sts	0x5013, r31	; 0x805013 <result+0x1>
    24fe:	9c 70       	andi	r25, 0x0C	; 12
    2500:	49 2f       	mov	r20, r25
    2502:	50 e0       	ldi	r21, 0x00	; 0
    2504:	44 0f       	add	r20, r20
    2506:	55 1f       	adc	r21, r21
    2508:	87 70       	andi	r24, 0x07	; 7
    250a:	ba 01       	movw	r22, r20
    250c:	68 2b       	or	r22, r24
    250e:	cb 01       	movw	r24, r22
    2510:	40 91 30 50 	lds	r20, 0x5030	; 0x805030 <ram+0x1c>
    2514:	50 91 31 50 	lds	r21, 0x5031	; 0x805031 <ram+0x1d>
    2518:	dc 01       	movw	r26, r24
    251a:	a4 0f       	add	r26, r20
    251c:	b5 1f       	adc	r27, r21
    251e:	6d 01       	movw	r12, r26
    2520:	0b 2e       	mov	r0, r27
    2522:	00 0c       	add	r0, r0
    2524:	ee 08       	sbc	r14, r14
    2526:	ff 08       	sbc	r15, r15
    2528:	46 01       	movw	r8, r12
    252a:	57 01       	movw	r10, r14
    252c:	7f ef       	ldi	r23, 0xFF	; 255
    252e:	87 1a       	sub	r8, r23
    2530:	7f e1       	ldi	r23, 0x1F	; 31
    2532:	97 0a       	sbc	r9, r23
    2534:	a1 08       	sbc	r10, r1
    2536:	b1 08       	sbc	r11, r1
    2538:	40 e5       	ldi	r20, 0x50	; 80
    253a:	50 e4       	ldi	r21, 0x40	; 64
    253c:	60 e0       	ldi	r22, 0x00	; 0
    253e:	70 e0       	ldi	r23, 0x00	; 0
    2540:	4c 19       	sub	r20, r12
    2542:	5d 09       	sbc	r21, r13
    2544:	6e 09       	sbc	r22, r14
    2546:	7f 09       	sbc	r23, r15
    2548:	48 15       	cp	r20, r8
    254a:	59 05       	cpc	r21, r9
    254c:	6a 05       	cpc	r22, r10
    254e:	7b 05       	cpc	r23, r11
    2550:	0c f4       	brge	.+2      	; 0x2554 <fetch+0x1fc6>
    2552:	a7 ce       	rjmp	.-690    	; 0x22a2 <fetch+0x1d14>
    2554:	8c 91       	ld	r24, X
    2556:	0c 94 ea 06 	jmp	0xdd4	; 0xdd4 <fetch+0x846>
    255a:	11 96       	adiw	r26, 0x01	; 1
    255c:	8c 91       	ld	r24, X
    255e:	28 2f       	mov	r18, r24
    2560:	2f 70       	andi	r18, 0x0F	; 15
    2562:	91 70       	andi	r25, 0x01	; 1
    2564:	28 30       	cpi	r18, 0x08	; 8
    2566:	08 f4       	brcc	.+2      	; 0x256a <fetch+0x1fdc>
    2568:	fa c6       	rjmp	.+3572   	; 0x335e <fetch+0x2dd0>
    256a:	9d af       	std	Y+61, r25	; 0x3d
    256c:	1e ae       	std	Y+62, r1	; 0x3e
    256e:	ed ad       	ldd	r30, Y+61	; 0x3d
    2570:	fe ad       	ldd	r31, Y+62	; 0x3e
    2572:	e2 95       	swap	r30
    2574:	f2 95       	swap	r31
    2576:	f0 7f       	andi	r31, 0xF0	; 240
    2578:	fe 27       	eor	r31, r30
    257a:	e0 7f       	andi	r30, 0xF0	; 240
    257c:	fe 27       	eor	r31, r30
    257e:	98 2f       	mov	r25, r24
    2580:	92 95       	swap	r25
    2582:	9f 70       	andi	r25, 0x0F	; 15
    2584:	e9 2b       	or	r30, r25
    2586:	ec 5e       	subi	r30, 0xEC	; 236
    2588:	ff 4a       	sbci	r31, 0xAF	; 175
    258a:	20 81       	ld	r18, Z
    258c:	e2 2f       	mov	r30, r18
    258e:	f0 e0       	ldi	r31, 0x00	; 0
    2590:	e0 93 12 50 	sts	0x5012, r30	; 0x805012 <result>
    2594:	f0 93 13 50 	sts	0x5013, r31	; 0x805013 <result+0x1>
    2598:	87 70       	andi	r24, 0x07	; 7
    259a:	e0 91 30 50 	lds	r30, 0x5030	; 0x805030 <ram+0x1c>
    259e:	f0 91 31 50 	lds	r31, 0x5031	; 0x805031 <ram+0x1d>
    25a2:	e8 0f       	add	r30, r24
    25a4:	f1 1d       	adc	r31, r1
    25a6:	6f 01       	movw	r12, r30
    25a8:	0f 2e       	mov	r0, r31
    25aa:	00 0c       	add	r0, r0
    25ac:	ee 08       	sbc	r14, r14
    25ae:	ff 08       	sbc	r15, r15
    25b0:	46 01       	movw	r8, r12
    25b2:	57 01       	movw	r10, r14
    25b4:	8f ef       	ldi	r24, 0xFF	; 255
    25b6:	88 1a       	sub	r8, r24
    25b8:	8f e1       	ldi	r24, 0x1F	; 31
    25ba:	98 0a       	sbc	r9, r24
    25bc:	a1 08       	sbc	r10, r1
    25be:	b1 08       	sbc	r11, r1
    25c0:	80 e5       	ldi	r24, 0x50	; 80
    25c2:	90 e4       	ldi	r25, 0x40	; 64
    25c4:	a0 e0       	ldi	r26, 0x00	; 0
    25c6:	b0 e0       	ldi	r27, 0x00	; 0
    25c8:	8c 19       	sub	r24, r12
    25ca:	9d 09       	sbc	r25, r13
    25cc:	ae 09       	sbc	r26, r14
    25ce:	bf 09       	sbc	r27, r15
    25d0:	88 15       	cp	r24, r8
    25d2:	99 05       	cpc	r25, r9
    25d4:	aa 05       	cpc	r26, r10
    25d6:	bb 05       	cpc	r27, r11
    25d8:	0c f4       	brge	.+2      	; 0x25dc <fetch+0x204e>
    25da:	ac c5       	rjmp	.+2904   	; 0x3134 <fetch+0x2ba6>
    25dc:	20 83       	st	Z, r18
    25de:	a0 91 10 50 	lds	r26, 0x5010	; 0x805010 <PC>
    25e2:	b0 91 11 50 	lds	r27, 0x5011	; 0x805011 <PC+0x1>
    25e6:	40 91 14 93 	lds	r20, 0x9314	; 0x809314 <totalcycles>
    25ea:	50 91 15 93 	lds	r21, 0x9315	; 0x809315 <totalcycles+0x1>
    25ee:	60 91 16 93 	lds	r22, 0x9316	; 0x809316 <totalcycles+0x2>
    25f2:	70 91 17 93 	lds	r23, 0x9317	; 0x809317 <totalcycles+0x3>
    25f6:	20 91 0b 40 	lds	r18, 0x400B	; 0x80400b <newStatus+0x1>
    25fa:	92 2f       	mov	r25, r18
    25fc:	99 1f       	adc	r25, r25
    25fe:	99 27       	eor	r25, r25
    2600:	99 1f       	adc	r25, r25
    2602:	80 91 0c 40 	lds	r24, 0x400C	; 0x80400c <newStatus+0x2>
    2606:	83 70       	andi	r24, 0x03	; 3
    2608:	88 0f       	add	r24, r24
    260a:	89 2b       	or	r24, r25
    260c:	82 95       	swap	r24
    260e:	88 0f       	add	r24, r24
    2610:	80 7e       	andi	r24, 0xE0	; 224
    2612:	98 2f       	mov	r25, r24
    2614:	95 95       	asr	r25
    2616:	95 95       	asr	r25
    2618:	95 95       	asr	r25
    261a:	95 95       	asr	r25
    261c:	95 95       	asr	r25
    261e:	e0 91 0a 40 	lds	r30, 0x400A	; 0x80400a <newStatus>
    2622:	8e 2f       	mov	r24, r30
    2624:	82 95       	swap	r24
    2626:	86 95       	lsr	r24
    2628:	86 95       	lsr	r24
    262a:	83 70       	andi	r24, 0x03	; 3
    262c:	e2 2f       	mov	r30, r18
    262e:	e1 70       	andi	r30, 0x01	; 1
    2630:	ee 0f       	add	r30, r30
    2632:	ee 0f       	add	r30, r30
    2634:	e8 2b       	or	r30, r24
    2636:	e2 95       	swap	r30
    2638:	ee 0f       	add	r30, r30
    263a:	e0 7e       	andi	r30, 0xE0	; 224
    263c:	e5 95       	asr	r30
    263e:	e5 95       	asr	r30
    2640:	e5 95       	asr	r30
    2642:	e5 95       	asr	r30
    2644:	e5 95       	asr	r30
    2646:	8d 01       	movw	r16, r26
    2648:	03 cd       	rjmp	.-1530   	; 0x2050 <fetch+0x1ac2>
    264a:	89 01       	movw	r16, r18
    264c:	02 5f       	subi	r16, 0xF2	; 242
    264e:	1f 4b       	sbci	r17, 0xBF	; 191
    2650:	f8 01       	movw	r30, r16
    2652:	80 81       	ld	r24, Z
    2654:	48 2f       	mov	r20, r24
    2656:	4f 70       	andi	r20, 0x0F	; 15
    2658:	09 f0       	breq	.+2      	; 0x265c <fetch+0x20ce>
    265a:	7c c5       	rjmp	.+2808   	; 0x3154 <fetch+0x2bc6>
    265c:	b9 01       	movw	r22, r18
    265e:	6d 5f       	subi	r22, 0xFD	; 253
    2660:	7f 4f       	sbci	r23, 0xFF	; 255
    2662:	79 01       	movw	r14, r18
    2664:	f2 e0       	ldi	r31, 0x02	; 2
    2666:	ef 0e       	add	r14, r31
    2668:	f1 1c       	adc	r15, r1
    266a:	f7 01       	movw	r30, r14
    266c:	ee 0f       	add	r30, r30
    266e:	ff 1f       	adc	r31, r31
    2670:	af 01       	movw	r20, r30
    2672:	46 5f       	subi	r20, 0xF6	; 246
    2674:	5f 4d       	sbci	r21, 0xDF	; 223
    2676:	6a 01       	movw	r12, r20
    2678:	fa 01       	movw	r30, r20
    267a:	40 81       	ld	r20, Z
    267c:	51 81       	ldd	r21, Z+1	; 0x01
    267e:	45 2b       	or	r20, r21
    2680:	11 f4       	brne	.+4      	; 0x2686 <fetch+0x20f8>
    2682:	0c 94 b5 1e 	jmp	0x3d6a	; 0x3d6a <fetch+0x37dc>
    2686:	87 01       	movw	r16, r14
    2688:	03 5f       	subi	r16, 0xF3	; 243
    268a:	1f 4b       	sbci	r17, 0xBF	; 191
    268c:	78 01       	movw	r14, r16
    268e:	ab 01       	movw	r20, r22
    2690:	43 5f       	subi	r20, 0xF3	; 243
    2692:	5f 4b       	sbci	r21, 0xBF	; 191
    2694:	91 70       	andi	r25, 0x01	; 1
    2696:	62 96       	adiw	r28, 0x12	; 18
    2698:	9f af       	std	Y+63, r25	; 0x3f
    269a:	62 97       	sbiw	r28, 0x12	; 18
    269c:	63 96       	adiw	r28, 0x13	; 19
    269e:	1f ae       	std	Y+63, r1	; 0x3f
    26a0:	63 97       	sbiw	r28, 0x13	; 19
    26a2:	63 96       	adiw	r28, 0x13	; 19
    26a4:	6e ad       	ldd	r22, Y+62	; 0x3e
    26a6:	7f ad       	ldd	r23, Y+63	; 0x3f
    26a8:	63 97       	sbiw	r28, 0x13	; 19
    26aa:	62 95       	swap	r22
    26ac:	72 95       	swap	r23
    26ae:	70 7f       	andi	r23, 0xF0	; 240
    26b0:	76 27       	eor	r23, r22
    26b2:	60 7f       	andi	r22, 0xF0	; 240
    26b4:	76 27       	eor	r23, r22
    26b6:	82 95       	swap	r24
    26b8:	8f 70       	andi	r24, 0x0F	; 15
    26ba:	68 2b       	or	r22, r24
    26bc:	f7 01       	movw	r30, r14
    26be:	80 81       	ld	r24, Z
    26c0:	90 e0       	ldi	r25, 0x00	; 0
    26c2:	98 2f       	mov	r25, r24
    26c4:	88 27       	eor	r24, r24
    26c6:	da 01       	movw	r26, r20
    26c8:	4c 91       	ld	r20, X
    26ca:	fc 01       	movw	r30, r24
    26cc:	e4 2b       	or	r30, r20
    26ce:	2f 01       	movw	r4, r30
    26d0:	0f 2e       	mov	r0, r31
    26d2:	00 0c       	add	r0, r0
    26d4:	66 08       	sbc	r6, r6
    26d6:	77 08       	sbc	r7, r7
    26d8:	d3 01       	movw	r26, r6
    26da:	c2 01       	movw	r24, r4
    26dc:	8f 5f       	subi	r24, 0xFF	; 255
    26de:	9f 41       	sbci	r25, 0x1F	; 31
    26e0:	a1 09       	sbc	r26, r1
    26e2:	b1 09       	sbc	r27, r1
    26e4:	10 e5       	ldi	r17, 0x50	; 80
    26e6:	c1 2e       	mov	r12, r17
    26e8:	10 e4       	ldi	r17, 0x40	; 64
    26ea:	d1 2e       	mov	r13, r17
    26ec:	e1 2c       	mov	r14, r1
    26ee:	f1 2c       	mov	r15, r1
    26f0:	c4 18       	sub	r12, r4
    26f2:	d5 08       	sbc	r13, r5
    26f4:	e6 08       	sbc	r14, r6
    26f6:	f7 08       	sbc	r15, r7
    26f8:	c8 16       	cp	r12, r24
    26fa:	d9 06       	cpc	r13, r25
    26fc:	ea 06       	cpc	r14, r26
    26fe:	fb 06       	cpc	r15, r27
    2700:	14 f4       	brge	.+4      	; 0x2706 <fetch+0x2178>
    2702:	ec 5e       	subi	r30, 0xEC	; 236
    2704:	ff 4a       	sbci	r31, 0xAF	; 175
    2706:	80 81       	ld	r24, Z
    2708:	fb 01       	movw	r30, r22
    270a:	ec 5e       	subi	r30, 0xEC	; 236
    270c:	ff 4a       	sbci	r31, 0xAF	; 175
    270e:	80 83       	st	Z, r24
    2710:	2c 5f       	subi	r18, 0xFC	; 252
    2712:	3f 4f       	sbci	r19, 0xFF	; 255
    2714:	be ce       	rjmp	.-644    	; 0x2492 <fetch+0x1f04>
    2716:	11 96       	adiw	r26, 0x01	; 1
    2718:	ec 91       	ld	r30, X
    271a:	10 e1       	ldi	r17, 0x10	; 16
    271c:	91 9f       	mul	r25, r17
    271e:	a0 01       	movw	r20, r0
    2720:	11 24       	eor	r1, r1
    2722:	55 27       	eor	r21, r21
    2724:	8e 2f       	mov	r24, r30
    2726:	8f 70       	andi	r24, 0x0F	; 15
    2728:	48 2b       	or	r20, r24
    272a:	40 93 12 50 	sts	0x5012, r20	; 0x805012 <result>
    272e:	50 93 13 50 	sts	0x5013, r21	; 0x805013 <result+0x1>
    2732:	e2 95       	swap	r30
    2734:	ef 70       	andi	r30, 0x0F	; 15
    2736:	f0 e0       	ldi	r31, 0x00	; 0
    2738:	ec 5d       	subi	r30, 0xDC	; 220
    273a:	ff 4a       	sbci	r31, 0xAF	; 175
    273c:	80 81       	ld	r24, Z
    273e:	84 23       	and	r24, r20
    2740:	80 83       	st	Z, r24
    2742:	ca 01       	movw	r24, r20
    2744:	88 0f       	add	r24, r24
    2746:	89 2f       	mov	r24, r25
    2748:	88 1f       	adc	r24, r24
    274a:	99 0b       	sbc	r25, r25
    274c:	91 95       	neg	r25
    274e:	98 2f       	mov	r25, r24
    2750:	91 70       	andi	r25, 0x01	; 1
    2752:	c8 cd       	rjmp	.-1136   	; 0x22e4 <fetch+0x1d56>
    2754:	11 96       	adiw	r26, 0x01	; 1
    2756:	8c 91       	ld	r24, X
    2758:	f8 2f       	mov	r31, r24
    275a:	f0 73       	andi	r31, 0x30	; 48
    275c:	cf 2e       	mov	r12, r31
    275e:	d1 2c       	mov	r13, r1
    2760:	d5 94       	asr	r13
    2762:	c7 94       	ror	r12
    2764:	d5 94       	asr	r13
    2766:	c7 94       	ror	r12
    2768:	d5 94       	asr	r13
    276a:	c7 94       	ror	r12
    276c:	d5 94       	asr	r13
    276e:	c7 94       	ror	r12
    2770:	c9 82       	std	Y+1, r12	; 0x01
    2772:	da 82       	std	Y+2, r13	; 0x02
    2774:	86 01       	movw	r16, r12
    2776:	02 30       	cpi	r16, 0x02	; 2
    2778:	11 05       	cpc	r17, r1
    277a:	11 f4       	brne	.+4      	; 0x2780 <fetch+0x21f2>
    277c:	0c 94 0d 1e 	jmp	0x3c1a	; 0x3c1a <fetch+0x368c>
    2780:	03 30       	cpi	r16, 0x03	; 3
    2782:	11 05       	cpc	r17, r1
    2784:	11 f4       	brne	.+4      	; 0x278a <fetch+0x21fc>
    2786:	0c 94 07 1e 	jmp	0x3c0e	; 0x3c0e <fetch+0x3680>
    278a:	01 30       	cpi	r16, 0x01	; 1
    278c:	11 05       	cpc	r17, r1
    278e:	11 f4       	brne	.+4      	; 0x2794 <fetch+0x2206>
    2790:	0c 94 13 1e 	jmp	0x3c26	; 0x3c26 <fetch+0x3698>
    2794:	a9 e1       	ldi	r26, 0x19	; 25
    2796:	b0 e0       	ldi	r27, 0x00	; 0
    2798:	e8 e1       	ldi	r30, 0x18	; 24
    279a:	f0 e0       	ldi	r31, 0x00	; 0
    279c:	ac 5e       	subi	r26, 0xEC	; 236
    279e:	bf 4a       	sbci	r27, 0xAF	; 175
    27a0:	ac 91       	ld	r26, X
    27a2:	b0 e0       	ldi	r27, 0x00	; 0
    27a4:	ba 2f       	mov	r27, r26
    27a6:	aa 27       	eor	r26, r26
    27a8:	ec 5e       	subi	r30, 0xEC	; 236
    27aa:	ff 4a       	sbci	r31, 0xAF	; 175
    27ac:	e0 81       	ld	r30, Z
    27ae:	ae 2b       	or	r26, r30
    27b0:	e8 2f       	mov	r30, r24
    27b2:	e0 7c       	andi	r30, 0xC0	; 192
    27b4:	ee 2e       	mov	r14, r30
    27b6:	f1 2c       	mov	r15, r1
    27b8:	f5 94       	asr	r15
    27ba:	e7 94       	ror	r14
    27bc:	f5 94       	asr	r15
    27be:	e7 94       	ror	r14
    27c0:	a7 fd       	sbrc	r26, 7
    27c2:	02 c0       	rjmp	.+4      	; 0x27c8 <fetch+0x223a>
    27c4:	0c 94 45 1d 	jmp	0x3a8a	; 0x3a8a <fetch+0x34fc>
    27c8:	00 e0       	ldi	r16, 0x00	; 0
    27ca:	8f 70       	andi	r24, 0x0F	; 15
    27cc:	f0 91 0b 40 	lds	r31, 0x400B	; 0x80400b <newStatus+0x1>
    27d0:	ff 78       	andi	r31, 0x8F	; 143
    27d2:	10 2f       	mov	r17, r16
    27d4:	12 95       	swap	r17
    27d6:	10 7f       	andi	r17, 0xF0	; 240
    27d8:	f1 2b       	or	r31, r17
    27da:	f0 93 0b 40 	sts	0x400B, r31	; 0x80400b <newStatus+0x1>
    27de:	96 39       	cpi	r25, 0x96	; 150
    27e0:	09 f4       	brne	.+2      	; 0x27e4 <fetch+0x2256>
    27e2:	c3 c0       	rjmp	.+390    	; 0x296a <fetch+0x23dc>
    27e4:	e8 2a       	or	r14, r24
    27e6:	fd 01       	movw	r30, r26
    27e8:	ee 19       	sub	r30, r14
    27ea:	ff 09       	sbc	r31, r15
    27ec:	e0 93 12 50 	sts	0x5012, r30	; 0x805012 <result>
    27f0:	f0 93 13 50 	sts	0x5013, r31	; 0x805013 <result+0x1>
    27f4:	81 e0       	ldi	r24, 0x01	; 1
    27f6:	ae 17       	cp	r26, r30
    27f8:	bf 07       	cpc	r27, r31
    27fa:	08 f0       	brcs	.+2      	; 0x27fe <fetch+0x2270>
    27fc:	c3 c0       	rjmp	.+390    	; 0x2984 <fetch+0x23f6>
    27fe:	82 95       	swap	r24
    2800:	88 0f       	add	r24, r24
    2802:	80 7e       	andi	r24, 0xE0	; 224
    2804:	90 91 0c 40 	lds	r25, 0x400C	; 0x80400c <newStatus+0x2>
    2808:	9f 71       	andi	r25, 0x1F	; 31
    280a:	89 2b       	or	r24, r25
    280c:	80 93 0c 40 	sts	0x400C, r24	; 0x80400c <newStatus+0x2>
    2810:	9f 2f       	mov	r25, r31
    2812:	99 1f       	adc	r25, r25
    2814:	99 27       	eor	r25, r25
    2816:	99 1f       	adc	r25, r25
    2818:	80 91 0b 40 	lds	r24, 0x400B	; 0x80400b <newStatus+0x1>
    281c:	90 fb       	bst	r25, 0
    281e:	87 f9       	bld	r24, 7
    2820:	80 93 0b 40 	sts	0x400B, r24	; 0x80400b <newStatus+0x1>
    2824:	80 91 0c 40 	lds	r24, 0x400C	; 0x80400c <newStatus+0x2>
    2828:	8c 7f       	andi	r24, 0xFC	; 252
    282a:	80 93 0c 40 	sts	0x400C, r24	; 0x80400c <newStatus+0x2>
    282e:	81 e0       	ldi	r24, 0x01	; 1
    2830:	30 97       	sbiw	r30, 0x00	; 0
    2832:	09 f0       	breq	.+2      	; 0x2836 <fetch+0x22a8>
    2834:	80 e0       	ldi	r24, 0x00	; 0
    2836:	88 0f       	add	r24, r24
    2838:	88 0f       	add	r24, r24
    283a:	a0 91 0c 40 	lds	r26, 0x400C	; 0x80400c <newStatus+0x2>
    283e:	a3 7e       	andi	r26, 0xE3	; 227
    2840:	8a 2b       	or	r24, r26
    2842:	80 93 0c 40 	sts	0x400C, r24	; 0x80400c <newStatus+0x2>
    2846:	09 27       	eor	r16, r25
    2848:	81 e0       	ldi	r24, 0x01	; 1
    284a:	10 16       	cp	r1, r16
    284c:	14 f0       	brlt	.+4      	; 0x2852 <fetch+0x22c4>
    284e:	0c 94 7f 1e 	jmp	0x3cfe	; 0x3cfe <fetch+0x3770>
    2852:	88 0f       	add	r24, r24
    2854:	a0 91 0b 40 	lds	r26, 0x400B	; 0x80400b <newStatus+0x1>
    2858:	a1 7f       	andi	r26, 0xF1	; 241
    285a:	8a 2b       	or	r24, r26
    285c:	80 93 0b 40 	sts	0x400B, r24	; 0x80400b <newStatus+0x1>
    2860:	a9 81       	ldd	r26, Y+1	; 0x01
    2862:	ba 81       	ldd	r27, Y+2	; 0x02
    2864:	a2 30       	cpi	r26, 0x02	; 2
    2866:	b1 05       	cpc	r27, r1
    2868:	11 f4       	brne	.+4      	; 0x286e <fetch+0x22e0>
    286a:	0c 94 82 1e 	jmp	0x3d04	; 0x3d04 <fetch+0x3776>
    286e:	a3 30       	cpi	r26, 0x03	; 3
    2870:	b1 05       	cpc	r27, r1
    2872:	11 f4       	brne	.+4      	; 0x2878 <fetch+0x22ea>
    2874:	0c 94 8e 1e 	jmp	0x3d1c	; 0x3d1c <fetch+0x378e>
    2878:	11 97       	sbiw	r26, 0x01	; 1
    287a:	11 f4       	brne	.+4      	; 0x2880 <fetch+0x22f2>
    287c:	0c 94 88 1e 	jmp	0x3d10	; 0x3d10 <fetch+0x3782>
    2880:	e0 93 2c 50 	sts	0x502C, r30	; 0x80502c <ram+0x18>
    2884:	f0 93 2d 50 	sts	0x502D, r31	; 0x80502d <ram+0x19>
    2888:	2e 5f       	subi	r18, 0xFE	; 254
    288a:	3f 4f       	sbci	r19, 0xFF	; 255
    288c:	20 93 10 50 	sts	0x5010, r18	; 0x805010 <PC>
    2890:	30 93 11 50 	sts	0x5011, r19	; 0x805011 <PC+0x1>
    2894:	4f 5f       	subi	r20, 0xFF	; 255
    2896:	5f 4f       	sbci	r21, 0xFF	; 255
    2898:	6f 4f       	sbci	r22, 0xFF	; 255
    289a:	7f 4f       	sbci	r23, 0xFF	; 255
    289c:	40 93 14 93 	sts	0x9314, r20	; 0x809314 <totalcycles>
    28a0:	50 93 15 93 	sts	0x9315, r21	; 0x809315 <totalcycles+0x1>
    28a4:	60 93 16 93 	sts	0x9316, r22	; 0x809316 <totalcycles+0x2>
    28a8:	70 93 17 93 	sts	0x9317, r23	; 0x809317 <totalcycles+0x3>
    28ac:	e0 91 0a 40 	lds	r30, 0x400A	; 0x80400a <newStatus>
    28b0:	8e 2f       	mov	r24, r30
    28b2:	82 95       	swap	r24
    28b4:	86 95       	lsr	r24
    28b6:	86 95       	lsr	r24
    28b8:	83 70       	andi	r24, 0x03	; 3
    28ba:	e0 91 0b 40 	lds	r30, 0x400B	; 0x80400b <newStatus+0x1>
    28be:	0c 94 8b 06 	jmp	0xd16	; 0xd16 <fetch+0x788>
    28c2:	11 96       	adiw	r26, 0x01	; 1
    28c4:	8c 91       	ld	r24, X
    28c6:	28 2f       	mov	r18, r24
    28c8:	2f 70       	andi	r18, 0x0F	; 15
    28ca:	28 30       	cpi	r18, 0x08	; 8
    28cc:	08 f4       	brcc	.+2      	; 0x28d0 <fetch+0x2342>
    28ce:	c3 c5       	rjmp	.+2950   	; 0x3456 <fetch+0x2ec8>
    28d0:	b9 2f       	mov	r27, r25
    28d2:	b1 70       	andi	r27, 0x01	; 1
    28d4:	2e 96       	adiw	r28, 0x0e	; 14
    28d6:	bf af       	std	Y+63, r27	; 0x3f
    28d8:	2e 97       	sbiw	r28, 0x0e	; 14
    28da:	2f 96       	adiw	r28, 0x0f	; 15
    28dc:	1f ae       	std	Y+63, r1	; 0x3f
    28de:	2f 97       	sbiw	r28, 0x0f	; 15
    28e0:	2f 96       	adiw	r28, 0x0f	; 15
    28e2:	ee ad       	ldd	r30, Y+62	; 0x3e
    28e4:	ff ad       	ldd	r31, Y+63	; 0x3f
    28e6:	2f 97       	sbiw	r28, 0x0f	; 15
    28e8:	e2 95       	swap	r30
    28ea:	f2 95       	swap	r31
    28ec:	f0 7f       	andi	r31, 0xF0	; 240
    28ee:	fe 27       	eor	r31, r30
    28f0:	e0 7f       	andi	r30, 0xF0	; 240
    28f2:	fe 27       	eor	r31, r30
    28f4:	28 2f       	mov	r18, r24
    28f6:	22 95       	swap	r18
    28f8:	2f 70       	andi	r18, 0x0F	; 15
    28fa:	e2 2b       	or	r30, r18
    28fc:	ec 5e       	subi	r30, 0xEC	; 236
    28fe:	ff 4a       	sbci	r31, 0xAF	; 175
    2900:	a0 81       	ld	r26, Z
    2902:	2a 2f       	mov	r18, r26
    2904:	30 e0       	ldi	r19, 0x00	; 0
    2906:	20 93 12 50 	sts	0x5012, r18	; 0x805012 <result>
    290a:	30 93 13 50 	sts	0x5013, r19	; 0x805013 <result+0x1>
    290e:	9c 70       	andi	r25, 0x0C	; 12
    2910:	29 2f       	mov	r18, r25
    2912:	30 e0       	ldi	r19, 0x00	; 0
    2914:	22 0f       	add	r18, r18
    2916:	33 1f       	adc	r19, r19
    2918:	87 70       	andi	r24, 0x07	; 7
    291a:	f9 01       	movw	r30, r18
    291c:	e8 2b       	or	r30, r24
    291e:	cf 01       	movw	r24, r30
    2920:	e0 91 30 50 	lds	r30, 0x5030	; 0x805030 <ram+0x1c>
    2924:	f0 91 31 50 	lds	r31, 0x5031	; 0x805031 <ram+0x1d>
    2928:	e8 0f       	add	r30, r24
    292a:	f9 1f       	adc	r31, r25
    292c:	4f 01       	movw	r8, r30
    292e:	0f 2e       	mov	r0, r31
    2930:	00 0c       	add	r0, r0
    2932:	aa 08       	sbc	r10, r10
    2934:	bb 08       	sbc	r11, r11
    2936:	24 01       	movw	r4, r8
    2938:	35 01       	movw	r6, r10
    293a:	0f ef       	ldi	r16, 0xFF	; 255
    293c:	40 1a       	sub	r4, r16
    293e:	0f e1       	ldi	r16, 0x1F	; 31
    2940:	50 0a       	sbc	r5, r16
    2942:	61 08       	sbc	r6, r1
    2944:	71 08       	sbc	r7, r1
    2946:	b0 e5       	ldi	r27, 0x50	; 80
    2948:	cb 2e       	mov	r12, r27
    294a:	b0 e4       	ldi	r27, 0x40	; 64
    294c:	db 2e       	mov	r13, r27
    294e:	e1 2c       	mov	r14, r1
    2950:	f1 2c       	mov	r15, r1
    2952:	c8 18       	sub	r12, r8
    2954:	d9 08       	sbc	r13, r9
    2956:	ea 08       	sbc	r14, r10
    2958:	fb 08       	sbc	r15, r11
    295a:	c4 14       	cp	r12, r4
    295c:	d5 04       	cpc	r13, r5
    295e:	e6 04       	cpc	r14, r6
    2960:	f7 04       	cpc	r15, r7
    2962:	0c f4       	brge	.+2      	; 0x2966 <fetch+0x23d8>
    2964:	71 c5       	rjmp	.+2786   	; 0x3448 <fetch+0x2eba>
    2966:	a0 83       	st	Z, r26
    2968:	33 cb       	rjmp	.-2458   	; 0x1fd0 <fetch+0x1a42>
    296a:	f7 01       	movw	r30, r14
    296c:	e8 2b       	or	r30, r24
    296e:	ea 0f       	add	r30, r26
    2970:	fb 1f       	adc	r31, r27
    2972:	e0 93 12 50 	sts	0x5012, r30	; 0x805012 <result>
    2976:	f0 93 13 50 	sts	0x5013, r31	; 0x805013 <result+0x1>
    297a:	81 e0       	ldi	r24, 0x01	; 1
    297c:	ea 17       	cp	r30, r26
    297e:	fb 07       	cpc	r31, r27
    2980:	08 f4       	brcc	.+2      	; 0x2984 <fetch+0x23f6>
    2982:	3d cf       	rjmp	.-390    	; 0x27fe <fetch+0x2270>
    2984:	80 e0       	ldi	r24, 0x00	; 0
    2986:	3b cf       	rjmp	.-394    	; 0x27fe <fetch+0x2270>
    2988:	6b 01       	movw	r12, r22
    298a:	c8 1a       	sub	r12, r24
    298c:	d1 08       	sbc	r13, r1
    298e:	c6 01       	movw	r24, r12
    2990:	88 0f       	add	r24, r24
    2992:	89 2f       	mov	r24, r25
    2994:	88 1f       	adc	r24, r24
    2996:	99 0b       	sbc	r25, r25
    2998:	91 95       	neg	r25
    299a:	b1 e0       	ldi	r27, 0x01	; 1
    299c:	8b 27       	eor	r24, r27
    299e:	b8 2f       	mov	r27, r24
    29a0:	b1 70       	andi	r27, 0x01	; 1
    29a2:	f6 c8       	rjmp	.-3604   	; 0x1b90 <fetch+0x1602>
    29a4:	ee 0c       	add	r14, r14
    29a6:	ef 2c       	mov	r14, r15
    29a8:	ee 1c       	adc	r14, r14
    29aa:	ff 08       	sbc	r15, r15
    29ac:	f1 94       	neg	r15
    29ae:	c7 01       	movw	r24, r14
    29b0:	f1 e0       	ldi	r31, 0x01	; 1
    29b2:	8f 27       	eor	r24, r31
    29b4:	f8 2f       	mov	r31, r24
    29b6:	f1 70       	andi	r31, 0x01	; 1
    29b8:	ff 2e       	mov	r15, r31
    29ba:	0c 94 33 0b 	jmp	0x1666	; 0x1666 <fetch+0x10d8>
    29be:	c9 01       	movw	r24, r18
    29c0:	03 96       	adiw	r24, 0x03	; 3
    29c2:	f9 01       	movw	r30, r18
    29c4:	32 96       	adiw	r30, 0x02	; 2
    29c6:	af 01       	movw	r20, r30
    29c8:	44 0f       	add	r20, r20
    29ca:	55 1f       	adc	r21, r21
    29cc:	46 5f       	subi	r20, 0xF6	; 246
    29ce:	5f 4d       	sbci	r21, 0xDF	; 223
    29d0:	da 01       	movw	r26, r20
    29d2:	6d 91       	ld	r22, X+
    29d4:	7c 91       	ld	r23, X
    29d6:	e3 5f       	subi	r30, 0xF3	; 243
    29d8:	ff 4b       	sbci	r31, 0xBF	; 191
    29da:	67 2b       	or	r22, r23
    29dc:	11 f4       	brne	.+4      	; 0x29e2 <fetch+0x2454>
    29de:	0c 94 9f 27 	jmp	0x4f3e	; 0x4f3e <fetch+0x49b0>
    29e2:	8c 01       	movw	r16, r24
    29e4:	03 5f       	subi	r16, 0xF3	; 243
    29e6:	1f 4b       	sbci	r17, 0xBF	; 191
    29e8:	09 83       	std	Y+1, r16	; 0x01
    29ea:	1a 83       	std	Y+2, r17	; 0x02
    29ec:	80 81       	ld	r24, Z
    29ee:	90 e0       	ldi	r25, 0x00	; 0
    29f0:	98 2f       	mov	r25, r24
    29f2:	88 27       	eor	r24, r24
    29f4:	e9 81       	ldd	r30, Y+1	; 0x01
    29f6:	fa 81       	ldd	r31, Y+2	; 0x02
    29f8:	40 81       	ld	r20, Z
    29fa:	84 2b       	or	r24, r20
    29fc:	88 0f       	add	r24, r24
    29fe:	99 1f       	adc	r25, r25
    2a00:	40 91 00 20 	lds	r20, 0x2000	; 0x802000 <__DATA_REGION_ORIGIN__>
    2a04:	50 91 01 20 	lds	r21, 0x2001	; 0x802001 <__DATA_REGION_ORIGIN__+0x1>
    2a08:	84 0f       	add	r24, r20
    2a0a:	95 1f       	adc	r25, r21
    2a0c:	80 93 12 50 	sts	0x5012, r24	; 0x805012 <result>
    2a10:	90 93 13 50 	sts	0x5013, r25	; 0x805013 <result+0x1>
    2a14:	d9 01       	movw	r26, r18
    2a16:	14 96       	adiw	r26, 0x04	; 4
    2a18:	e0 91 71 50 	lds	r30, 0x5071	; 0x805071 <ram+0x5d>
    2a1c:	f0 91 72 50 	lds	r31, 0x5072	; 0x805072 <ram+0x5e>
    2a20:	ec 5e       	subi	r30, 0xEC	; 236
    2a22:	ff 4a       	sbci	r31, 0xAF	; 175
    2a24:	a0 83       	st	Z, r26
    2a26:	00 91 71 50 	lds	r16, 0x5071	; 0x805071 <ram+0x5d>
    2a2a:	10 91 72 50 	lds	r17, 0x5072	; 0x805072 <ram+0x5e>
    2a2e:	01 2e       	mov	r0, r17
    2a30:	00 0c       	add	r0, r0
    2a32:	22 0b       	sbc	r18, r18
    2a34:	33 0b       	sbc	r19, r19
    2a36:	01 50       	subi	r16, 0x01	; 1
    2a38:	11 09       	sbc	r17, r1
    2a3a:	21 09       	sbc	r18, r1
    2a3c:	31 09       	sbc	r19, r1
    2a3e:	41 2f       	mov	r20, r17
    2a40:	50 e0       	ldi	r21, 0x00	; 0
    2a42:	10 93 72 50 	sts	0x5072, r17	; 0x805072 <ram+0x5e>
    2a46:	00 93 71 50 	sts	0x5071, r16	; 0x805071 <ram+0x5d>
    2a4a:	54 2f       	mov	r21, r20
    2a4c:	44 27       	eor	r20, r20
    2a4e:	40 2b       	or	r20, r16
    2a50:	fa 01       	movw	r30, r20
    2a52:	ec 5e       	subi	r30, 0xEC	; 236
    2a54:	ff 4a       	sbci	r31, 0xAF	; 175
    2a56:	b0 83       	st	Z, r27
    2a58:	40 91 71 50 	lds	r20, 0x5071	; 0x805071 <ram+0x5d>
    2a5c:	50 91 72 50 	lds	r21, 0x5072	; 0x805072 <ram+0x5e>
    2a60:	05 2e       	mov	r0, r21
    2a62:	00 0c       	add	r0, r0
    2a64:	66 0b       	sbc	r22, r22
    2a66:	77 0b       	sbc	r23, r23
    2a68:	41 50       	subi	r20, 0x01	; 1
    2a6a:	51 09       	sbc	r21, r1
    2a6c:	61 09       	sbc	r22, r1
    2a6e:	71 09       	sbc	r23, r1
    2a70:	50 93 72 50 	sts	0x5072, r21	; 0x805072 <ram+0x5e>
    2a74:	40 93 71 50 	sts	0x5071, r20	; 0x805071 <ram+0x5d>
    2a78:	80 93 10 50 	sts	0x5010, r24	; 0x805010 <PC>
    2a7c:	90 93 11 50 	sts	0x5011, r25	; 0x805011 <PC+0x1>
    2a80:	e2 e0       	ldi	r30, 0x02	; 2
    2a82:	92 e0       	ldi	r25, 0x02	; 2
    2a84:	0c 94 b2 03 	jmp	0x764	; 0x764 <fetch+0x1d6>
    2a88:	c9 01       	movw	r24, r18
    2a8a:	03 96       	adiw	r24, 0x03	; 3
    2a8c:	f9 01       	movw	r30, r18
    2a8e:	32 96       	adiw	r30, 0x02	; 2
    2a90:	9f 01       	movw	r18, r30
    2a92:	22 0f       	add	r18, r18
    2a94:	33 1f       	adc	r19, r19
    2a96:	26 5f       	subi	r18, 0xF6	; 246
    2a98:	3f 4d       	sbci	r19, 0xDF	; 223
    2a9a:	d9 01       	movw	r26, r18
    2a9c:	4d 91       	ld	r20, X+
    2a9e:	5c 91       	ld	r21, X
    2aa0:	e3 5f       	subi	r30, 0xF3	; 243
    2aa2:	ff 4b       	sbci	r31, 0xBF	; 191
    2aa4:	45 2b       	or	r20, r21
    2aa6:	11 f4       	brne	.+4      	; 0x2aac <fetch+0x251e>
    2aa8:	0c 94 b9 27 	jmp	0x4f72	; 0x4f72 <fetch+0x49e4>
    2aac:	8c 01       	movw	r16, r24
    2aae:	03 5f       	subi	r16, 0xF3	; 243
    2ab0:	1f 4b       	sbci	r17, 0xBF	; 191
    2ab2:	09 83       	std	Y+1, r16	; 0x01
    2ab4:	1a 83       	std	Y+2, r17	; 0x02
    2ab6:	80 81       	ld	r24, Z
    2ab8:	90 e0       	ldi	r25, 0x00	; 0
    2aba:	98 2f       	mov	r25, r24
    2abc:	88 27       	eor	r24, r24
    2abe:	e9 81       	ldd	r30, Y+1	; 0x01
    2ac0:	fa 81       	ldd	r31, Y+2	; 0x02
    2ac2:	20 81       	ld	r18, Z
    2ac4:	82 2b       	or	r24, r18
    2ac6:	80 93 12 50 	sts	0x5012, r24	; 0x805012 <result>
    2aca:	90 93 13 50 	sts	0x5013, r25	; 0x805013 <result+0x1>
    2ace:	88 0f       	add	r24, r24
    2ad0:	99 1f       	adc	r25, r25
    2ad2:	20 91 00 20 	lds	r18, 0x2000	; 0x802000 <__DATA_REGION_ORIGIN__>
    2ad6:	30 91 01 20 	lds	r19, 0x2001	; 0x802001 <__DATA_REGION_ORIGIN__+0x1>
    2ada:	82 0f       	add	r24, r18
    2adc:	93 1f       	adc	r25, r19
    2ade:	80 93 10 50 	sts	0x5010, r24	; 0x805010 <PC>
    2ae2:	90 93 11 50 	sts	0x5011, r25	; 0x805011 <PC+0x1>
    2ae6:	f3 e0       	ldi	r31, 0x03	; 3
    2ae8:	8f 0e       	add	r8, r31
    2aea:	91 1c       	adc	r9, r1
    2aec:	a1 1c       	adc	r10, r1
    2aee:	b1 1c       	adc	r11, r1
    2af0:	80 92 14 93 	sts	0x9314, r8	; 0x809314 <totalcycles>
    2af4:	90 92 15 93 	sts	0x9315, r9	; 0x809315 <totalcycles+0x1>
    2af8:	a0 92 16 93 	sts	0x9316, r10	; 0x809316 <totalcycles+0x2>
    2afc:	b0 92 17 93 	sts	0x9317, r11	; 0x809317 <totalcycles+0x3>
    2b00:	e2 e0       	ldi	r30, 0x02	; 2
    2b02:	92 e0       	ldi	r25, 0x02	; 2
    2b04:	0c 94 b2 03 	jmp	0x764	; 0x764 <fetch+0x1d6>
    2b08:	91 70       	andi	r25, 0x01	; 1
    2b0a:	cd 56       	subi	r28, 0x6D	; 109
    2b0c:	df 4f       	sbci	r29, 0xFF	; 255
    2b0e:	98 83       	st	Y, r25
    2b10:	c3 59       	subi	r28, 0x93	; 147
    2b12:	d0 40       	sbci	r29, 0x00	; 0
    2b14:	cc 56       	subi	r28, 0x6C	; 108
    2b16:	df 4f       	sbci	r29, 0xFF	; 255
    2b18:	18 82       	st	Y, r1
    2b1a:	c4 59       	subi	r28, 0x94	; 148
    2b1c:	d0 40       	sbci	r29, 0x00	; 0
    2b1e:	cd 56       	subi	r28, 0x6D	; 109
    2b20:	df 4f       	sbci	r29, 0xFF	; 255
    2b22:	e8 81       	ld	r30, Y
    2b24:	f9 81       	ldd	r31, Y+1	; 0x01
    2b26:	c3 59       	subi	r28, 0x93	; 147
    2b28:	d0 40       	sbci	r29, 0x00	; 0
    2b2a:	e2 95       	swap	r30
    2b2c:	f2 95       	swap	r31
    2b2e:	f0 7f       	andi	r31, 0xF0	; 240
    2b30:	fe 27       	eor	r31, r30
    2b32:	e0 7f       	andi	r30, 0xF0	; 240
    2b34:	fe 27       	eor	r31, r30
    2b36:	42 95       	swap	r20
    2b38:	4f 70       	andi	r20, 0x0F	; 15
    2b3a:	e4 2b       	or	r30, r20
    2b3c:	ec 5e       	subi	r30, 0xEC	; 236
    2b3e:	ff 4a       	sbci	r31, 0xAF	; 175
    2b40:	40 81       	ld	r20, Z
    2b42:	50 e0       	ldi	r21, 0x00	; 0
    2b44:	a1 e0       	ldi	r26, 0x01	; 1
    2b46:	40 38       	cpi	r20, 0x80	; 128
    2b48:	51 05       	cpc	r21, r1
    2b4a:	09 f0       	breq	.+2      	; 0x2b4e <fetch+0x25c0>
    2b4c:	a0 e0       	ldi	r26, 0x00	; 0
    2b4e:	80 91 0b 40 	lds	r24, 0x400B	; 0x80400b <newStatus+0x1>
    2b52:	b8 2f       	mov	r27, r24
    2b54:	bf 70       	andi	r27, 0x0F	; 15
    2b56:	41 50       	subi	r20, 0x01	; 1
    2b58:	51 09       	sbc	r21, r1
    2b5a:	40 93 12 50 	sts	0x5012, r20	; 0x805012 <result>
    2b5e:	50 93 13 50 	sts	0x5013, r21	; 0x805013 <result+0x1>
    2b62:	40 83       	st	Z, r20
    2b64:	ba 01       	movw	r22, r20
    2b66:	66 0f       	add	r22, r22
    2b68:	67 2f       	mov	r22, r23
    2b6a:	66 1f       	adc	r22, r22
    2b6c:	77 0b       	sbc	r23, r23
    2b6e:	71 95       	neg	r23
    2b70:	61 70       	andi	r22, 0x01	; 1
    2b72:	96 2f       	mov	r25, r22
    2b74:	76 2f       	mov	r23, r22
    2b76:	77 95       	ror	r23
    2b78:	77 27       	eor	r23, r23
    2b7a:	77 95       	ror	r23
    2b7c:	8a 2f       	mov	r24, r26
    2b7e:	82 95       	swap	r24
    2b80:	80 7f       	andi	r24, 0xF0	; 240
    2b82:	8b 2b       	or	r24, r27
    2b84:	87 2b       	or	r24, r23
    2b86:	80 93 0b 40 	sts	0x400B, r24	; 0x80400b <newStatus+0x1>
    2b8a:	86 2f       	mov	r24, r22
    2b8c:	86 95       	lsr	r24
    2b8e:	83 70       	andi	r24, 0x03	; 3
    2b90:	70 91 0c 40 	lds	r23, 0x400C	; 0x80400c <newStatus+0x2>
    2b94:	7c 7f       	andi	r23, 0xFC	; 252
    2b96:	87 2b       	or	r24, r23
    2b98:	80 93 0c 40 	sts	0x400C, r24	; 0x80400c <newStatus+0x2>
    2b9c:	81 e0       	ldi	r24, 0x01	; 1
    2b9e:	45 2b       	or	r20, r21
    2ba0:	09 f0       	breq	.+2      	; 0x2ba4 <fetch+0x2616>
    2ba2:	80 e0       	ldi	r24, 0x00	; 0
    2ba4:	88 0f       	add	r24, r24
    2ba6:	88 0f       	add	r24, r24
    2ba8:	40 91 0c 40 	lds	r20, 0x400C	; 0x80400c <newStatus+0x2>
    2bac:	43 7e       	andi	r20, 0xE3	; 227
    2bae:	84 2b       	or	r24, r20
    2bb0:	80 93 0c 40 	sts	0x400C, r24	; 0x80400c <newStatus+0x2>
    2bb4:	81 e0       	ldi	r24, 0x01	; 1
    2bb6:	a6 13       	cpse	r26, r22
    2bb8:	0c 94 d7 0b 	jmp	0x17ae	; 0x17ae <fetch+0x1220>
    2bbc:	80 e0       	ldi	r24, 0x00	; 0
    2bbe:	0c 94 d7 0b 	jmp	0x17ae	; 0x17ae <fetch+0x1220>
    2bc2:	91 70       	andi	r25, 0x01	; 1
    2bc4:	c5 57       	subi	r28, 0x75	; 117
    2bc6:	df 4f       	sbci	r29, 0xFF	; 255
    2bc8:	98 83       	st	Y, r25
    2bca:	cb 58       	subi	r28, 0x8B	; 139
    2bcc:	d0 40       	sbci	r29, 0x00	; 0
    2bce:	c4 57       	subi	r28, 0x74	; 116
    2bd0:	df 4f       	sbci	r29, 0xFF	; 255
    2bd2:	18 82       	st	Y, r1
    2bd4:	cc 58       	subi	r28, 0x8C	; 140
    2bd6:	d0 40       	sbci	r29, 0x00	; 0
    2bd8:	c5 57       	subi	r28, 0x75	; 117
    2bda:	df 4f       	sbci	r29, 0xFF	; 255
    2bdc:	e8 81       	ld	r30, Y
    2bde:	f9 81       	ldd	r31, Y+1	; 0x01
    2be0:	cb 58       	subi	r28, 0x8B	; 139
    2be2:	d0 40       	sbci	r29, 0x00	; 0
    2be4:	e2 95       	swap	r30
    2be6:	f2 95       	swap	r31
    2be8:	f0 7f       	andi	r31, 0xF0	; 240
    2bea:	fe 27       	eor	r31, r30
    2bec:	e0 7f       	andi	r30, 0xF0	; 240
    2bee:	fe 27       	eor	r31, r30
    2bf0:	42 95       	swap	r20
    2bf2:	4f 70       	andi	r20, 0x0F	; 15
    2bf4:	e4 2b       	or	r30, r20
    2bf6:	ec 5e       	subi	r30, 0xEC	; 236
    2bf8:	ff 4a       	sbci	r31, 0xAF	; 175
    2bfa:	80 81       	ld	r24, Z
    2bfc:	90 e0       	ldi	r25, 0x00	; 0
    2bfe:	51 e0       	ldi	r21, 0x01	; 1
    2c00:	8f 37       	cpi	r24, 0x7F	; 127
    2c02:	91 05       	cpc	r25, r1
    2c04:	09 f0       	breq	.+2      	; 0x2c08 <fetch+0x267a>
    2c06:	50 e0       	ldi	r21, 0x00	; 0
    2c08:	40 91 0b 40 	lds	r20, 0x400B	; 0x80400b <newStatus+0x1>
    2c0c:	a4 2f       	mov	r26, r20
    2c0e:	af 70       	andi	r26, 0x0F	; 15
    2c10:	01 96       	adiw	r24, 0x01	; 1
    2c12:	80 93 12 50 	sts	0x5012, r24	; 0x805012 <result>
    2c16:	90 93 13 50 	sts	0x5013, r25	; 0x805013 <result+0x1>
    2c1a:	80 83       	st	Z, r24
    2c1c:	bc 01       	movw	r22, r24
    2c1e:	66 0f       	add	r22, r22
    2c20:	67 2f       	mov	r22, r23
    2c22:	66 1f       	adc	r22, r22
    2c24:	77 0b       	sbc	r23, r23
    2c26:	71 95       	neg	r23
    2c28:	61 70       	andi	r22, 0x01	; 1
    2c2a:	96 2f       	mov	r25, r22
    2c2c:	76 2f       	mov	r23, r22
    2c2e:	77 95       	ror	r23
    2c30:	77 27       	eor	r23, r23
    2c32:	77 95       	ror	r23
    2c34:	45 2f       	mov	r20, r21
    2c36:	42 95       	swap	r20
    2c38:	40 7f       	andi	r20, 0xF0	; 240
    2c3a:	4a 2b       	or	r20, r26
    2c3c:	47 2b       	or	r20, r23
    2c3e:	40 93 0b 40 	sts	0x400B, r20	; 0x80400b <newStatus+0x1>
    2c42:	46 2f       	mov	r20, r22
    2c44:	46 95       	lsr	r20
    2c46:	43 70       	andi	r20, 0x03	; 3
    2c48:	70 91 0c 40 	lds	r23, 0x400C	; 0x80400c <newStatus+0x2>
    2c4c:	7c 7f       	andi	r23, 0xFC	; 252
    2c4e:	47 2b       	or	r20, r23
    2c50:	40 93 0c 40 	sts	0x400C, r20	; 0x80400c <newStatus+0x2>
    2c54:	41 e0       	ldi	r20, 0x01	; 1
    2c56:	81 11       	cpse	r24, r1
    2c58:	40 e0       	ldi	r20, 0x00	; 0
    2c5a:	44 0f       	add	r20, r20
    2c5c:	44 0f       	add	r20, r20
    2c5e:	80 91 0c 40 	lds	r24, 0x400C	; 0x80400c <newStatus+0x2>
    2c62:	83 7e       	andi	r24, 0xE3	; 227
    2c64:	84 2b       	or	r24, r20
    2c66:	80 93 0c 40 	sts	0x400C, r24	; 0x80400c <newStatus+0x2>
    2c6a:	81 e0       	ldi	r24, 0x01	; 1
    2c6c:	56 13       	cpse	r21, r22
    2c6e:	0c 94 d7 0b 	jmp	0x17ae	; 0x17ae <fetch+0x1220>
    2c72:	80 e0       	ldi	r24, 0x00	; 0
    2c74:	0c 94 d7 0b 	jmp	0x17ae	; 0x17ae <fetch+0x1220>
    2c78:	91 70       	andi	r25, 0x01	; 1
    2c7a:	c7 57       	subi	r28, 0x77	; 119
    2c7c:	df 4f       	sbci	r29, 0xFF	; 255
    2c7e:	98 83       	st	Y, r25
    2c80:	c9 58       	subi	r28, 0x89	; 137
    2c82:	d0 40       	sbci	r29, 0x00	; 0
    2c84:	c6 57       	subi	r28, 0x76	; 118
    2c86:	df 4f       	sbci	r29, 0xFF	; 255
    2c88:	18 82       	st	Y, r1
    2c8a:	ca 58       	subi	r28, 0x8A	; 138
    2c8c:	d0 40       	sbci	r29, 0x00	; 0
    2c8e:	c7 57       	subi	r28, 0x77	; 119
    2c90:	df 4f       	sbci	r29, 0xFF	; 255
    2c92:	e8 81       	ld	r30, Y
    2c94:	f9 81       	ldd	r31, Y+1	; 0x01
    2c96:	c9 58       	subi	r28, 0x89	; 137
    2c98:	d0 40       	sbci	r29, 0x00	; 0
    2c9a:	e2 95       	swap	r30
    2c9c:	f2 95       	swap	r31
    2c9e:	f0 7f       	andi	r31, 0xF0	; 240
    2ca0:	fe 27       	eor	r31, r30
    2ca2:	e0 7f       	andi	r30, 0xF0	; 240
    2ca4:	fe 27       	eor	r31, r30
    2ca6:	42 95       	swap	r20
    2ca8:	4f 70       	andi	r20, 0x0F	; 15
    2caa:	e4 2b       	or	r30, r20
    2cac:	ec 5e       	subi	r30, 0xEC	; 236
    2cae:	ff 4a       	sbci	r31, 0xAF	; 175
    2cb0:	40 81       	ld	r20, Z
    2cb2:	50 e1       	ldi	r21, 0x10	; 16
    2cb4:	45 9f       	mul	r20, r21
    2cb6:	c0 01       	movw	r24, r0
    2cb8:	11 24       	eor	r1, r1
    2cba:	42 95       	swap	r20
    2cbc:	4f 70       	andi	r20, 0x0F	; 15
    2cbe:	84 2b       	or	r24, r20
    2cc0:	80 93 12 50 	sts	0x5012, r24	; 0x805012 <result>
    2cc4:	90 93 13 50 	sts	0x5013, r25	; 0x805013 <result+0x1>
    2cc8:	0c 94 ec 06 	jmp	0xdd8	; 0xdd8 <fetch+0x84a>
    2ccc:	91 70       	andi	r25, 0x01	; 1
    2cce:	c9 57       	subi	r28, 0x79	; 121
    2cd0:	df 4f       	sbci	r29, 0xFF	; 255
    2cd2:	98 83       	st	Y, r25
    2cd4:	c7 58       	subi	r28, 0x87	; 135
    2cd6:	d0 40       	sbci	r29, 0x00	; 0
    2cd8:	c8 57       	subi	r28, 0x78	; 120
    2cda:	df 4f       	sbci	r29, 0xFF	; 255
    2cdc:	18 82       	st	Y, r1
    2cde:	c8 58       	subi	r28, 0x88	; 136
    2ce0:	d0 40       	sbci	r29, 0x00	; 0
    2ce2:	c9 57       	subi	r28, 0x79	; 121
    2ce4:	df 4f       	sbci	r29, 0xFF	; 255
    2ce6:	e8 81       	ld	r30, Y
    2ce8:	f9 81       	ldd	r31, Y+1	; 0x01
    2cea:	c7 58       	subi	r28, 0x87	; 135
    2cec:	d0 40       	sbci	r29, 0x00	; 0
    2cee:	e2 95       	swap	r30
    2cf0:	f2 95       	swap	r31
    2cf2:	f0 7f       	andi	r31, 0xF0	; 240
    2cf4:	fe 27       	eor	r31, r30
    2cf6:	e0 7f       	andi	r30, 0xF0	; 240
    2cf8:	fe 27       	eor	r31, r30
    2cfa:	42 95       	swap	r20
    2cfc:	4f 70       	andi	r20, 0x0F	; 15
    2cfe:	e4 2b       	or	r30, r20
    2d00:	ec 5e       	subi	r30, 0xEC	; 236
    2d02:	ff 4a       	sbci	r31, 0xAF	; 175
    2d04:	80 81       	ld	r24, Z
    2d06:	80 38       	cpi	r24, 0x80	; 128
    2d08:	59 f0       	breq	.+22     	; 0x2d20 <fetch+0x2792>
    2d0a:	90 e0       	ldi	r25, 0x00	; 0
    2d0c:	91 95       	neg	r25
    2d0e:	81 95       	neg	r24
    2d10:	91 09       	sbc	r25, r1
    2d12:	ac 01       	movw	r20, r24
    2d14:	55 27       	eor	r21, r21
    2d16:	40 93 12 50 	sts	0x5012, r20	; 0x805012 <result>
    2d1a:	50 93 13 50 	sts	0x5013, r21	; 0x805013 <result+0x1>
    2d1e:	80 83       	st	Z, r24
    2d20:	80 81       	ld	r24, Z
    2d22:	83 fb       	bst	r24, 3
    2d24:	ee 27       	eor	r30, r30
    2d26:	e0 f9       	bld	r30, 0
    2d28:	91 e0       	ldi	r25, 0x01	; 1
    2d2a:	e9 27       	eor	r30, r25
    2d2c:	81 95       	neg	r24
    2d2e:	83 fb       	bst	r24, 3
    2d30:	88 27       	eor	r24, r24
    2d32:	80 f9       	bld	r24, 0
    2d34:	e8 2b       	or	r30, r24
    2d36:	8e 2f       	mov	r24, r30
    2d38:	82 95       	swap	r24
    2d3a:	88 0f       	add	r24, r24
    2d3c:	88 0f       	add	r24, r24
    2d3e:	80 7c       	andi	r24, 0xC0	; 192
    2d40:	90 91 0a 40 	lds	r25, 0x400A	; 0x80400a <newStatus>
    2d44:	9f 73       	andi	r25, 0x3F	; 63
    2d46:	89 2b       	or	r24, r25
    2d48:	80 93 0a 40 	sts	0x400A, r24	; 0x80400a <newStatus>
    2d4c:	80 91 0b 40 	lds	r24, 0x400B	; 0x80400b <newStatus+0x1>
    2d50:	8e 7f       	andi	r24, 0xFE	; 254
    2d52:	80 93 0b 40 	sts	0x400B, r24	; 0x80400b <newStatus+0x1>
    2d56:	60 91 12 50 	lds	r22, 0x5012	; 0x805012 <result>
    2d5a:	70 91 13 50 	lds	r23, 0x5013	; 0x805013 <result+0x1>
    2d5e:	f1 e0       	ldi	r31, 0x01	; 1
    2d60:	60 38       	cpi	r22, 0x80	; 128
    2d62:	71 05       	cpc	r23, r1
    2d64:	09 f0       	breq	.+2      	; 0x2d68 <fetch+0x27da>
    2d66:	f0 e0       	ldi	r31, 0x00	; 0
    2d68:	80 91 0b 40 	lds	r24, 0x400B	; 0x80400b <newStatus+0x1>
    2d6c:	98 2f       	mov	r25, r24
    2d6e:	9f 78       	andi	r25, 0x8F	; 143
    2d70:	8f 2f       	mov	r24, r31
    2d72:	82 95       	swap	r24
    2d74:	80 7f       	andi	r24, 0xF0	; 240
    2d76:	89 2b       	or	r24, r25
    2d78:	80 93 0b 40 	sts	0x400B, r24	; 0x80400b <newStatus+0x1>
    2d7c:	81 e0       	ldi	r24, 0x01	; 1
    2d7e:	61 15       	cp	r22, r1
    2d80:	71 05       	cpc	r23, r1
    2d82:	09 f4       	brne	.+2      	; 0x2d86 <fetch+0x27f8>
    2d84:	80 e0       	ldi	r24, 0x00	; 0
    2d86:	82 95       	swap	r24
    2d88:	88 0f       	add	r24, r24
    2d8a:	80 7e       	andi	r24, 0xE0	; 224
    2d8c:	a0 91 0c 40 	lds	r26, 0x400C	; 0x80400c <newStatus+0x2>
    2d90:	ac 71       	andi	r26, 0x1C	; 28
    2d92:	ab 01       	movw	r20, r22
    2d94:	44 0f       	add	r20, r20
    2d96:	45 2f       	mov	r20, r21
    2d98:	44 1f       	adc	r20, r20
    2d9a:	55 0b       	sbc	r21, r21
    2d9c:	51 95       	neg	r21
    2d9e:	41 70       	andi	r20, 0x01	; 1
    2da0:	94 2f       	mov	r25, r20
    2da2:	50 91 0b 40 	lds	r21, 0x400B	; 0x80400b <newStatus+0x1>
    2da6:	40 fb       	bst	r20, 0
    2da8:	57 f9       	bld	r21, 7
    2daa:	50 93 0b 40 	sts	0x400B, r21	; 0x80400b <newStatus+0x1>
    2dae:	8a 2b       	or	r24, r26
    2db0:	80 93 0c 40 	sts	0x400C, r24	; 0x80400c <newStatus+0x2>
    2db4:	81 e0       	ldi	r24, 0x01	; 1
    2db6:	67 2b       	or	r22, r23
    2db8:	09 f0       	breq	.+2      	; 0x2dbc <fetch+0x282e>
    2dba:	80 e0       	ldi	r24, 0x00	; 0
    2dbc:	88 0f       	add	r24, r24
    2dbe:	88 0f       	add	r24, r24
    2dc0:	50 91 0c 40 	lds	r21, 0x400C	; 0x80400c <newStatus+0x2>
    2dc4:	53 7e       	andi	r21, 0xE3	; 227
    2dc6:	85 2b       	or	r24, r21
    2dc8:	80 93 0c 40 	sts	0x400C, r24	; 0x80400c <newStatus+0x2>
    2dcc:	81 e0       	ldi	r24, 0x01	; 1
    2dce:	f4 13       	cpse	r31, r20
    2dd0:	0c 94 db 08 	jmp	0x11b6	; 0x11b6 <fetch+0xc28>
    2dd4:	80 e0       	ldi	r24, 0x00	; 0
    2dd6:	0c 94 db 08 	jmp	0x11b6	; 0x11b6 <fetch+0xc28>
    2dda:	91 70       	andi	r25, 0x01	; 1
    2ddc:	cb 57       	subi	r28, 0x7B	; 123
    2dde:	df 4f       	sbci	r29, 0xFF	; 255
    2de0:	98 83       	st	Y, r25
    2de2:	c5 58       	subi	r28, 0x85	; 133
    2de4:	d0 40       	sbci	r29, 0x00	; 0
    2de6:	ca 57       	subi	r28, 0x7A	; 122
    2de8:	df 4f       	sbci	r29, 0xFF	; 255
    2dea:	18 82       	st	Y, r1
    2dec:	c6 58       	subi	r28, 0x86	; 134
    2dee:	d0 40       	sbci	r29, 0x00	; 0
    2df0:	cb 57       	subi	r28, 0x7B	; 123
    2df2:	df 4f       	sbci	r29, 0xFF	; 255
    2df4:	e8 81       	ld	r30, Y
    2df6:	f9 81       	ldd	r31, Y+1	; 0x01
    2df8:	c5 58       	subi	r28, 0x85	; 133
    2dfa:	d0 40       	sbci	r29, 0x00	; 0
    2dfc:	e2 95       	swap	r30
    2dfe:	f2 95       	swap	r31
    2e00:	f0 7f       	andi	r31, 0xF0	; 240
    2e02:	fe 27       	eor	r31, r30
    2e04:	e0 7f       	andi	r30, 0xF0	; 240
    2e06:	fe 27       	eor	r31, r30
    2e08:	42 95       	swap	r20
    2e0a:	4f 70       	andi	r20, 0x0F	; 15
    2e0c:	e4 2b       	or	r30, r20
    2e0e:	ec 5e       	subi	r30, 0xEC	; 236
    2e10:	ff 4a       	sbci	r31, 0xAF	; 175
    2e12:	80 81       	ld	r24, Z
    2e14:	90 e0       	ldi	r25, 0x00	; 0
    2e16:	80 95       	com	r24
    2e18:	90 95       	com	r25
    2e1a:	80 93 12 50 	sts	0x5012, r24	; 0x805012 <result>
    2e1e:	90 93 13 50 	sts	0x5013, r25	; 0x805013 <result+0x1>
    2e22:	80 83       	st	Z, r24
    2e24:	40 91 0b 40 	lds	r20, 0x400B	; 0x80400b <newStatus+0x1>
    2e28:	88 0f       	add	r24, r24
    2e2a:	89 2f       	mov	r24, r25
    2e2c:	88 1f       	adc	r24, r24
    2e2e:	99 0b       	sbc	r25, r25
    2e30:	91 95       	neg	r25
    2e32:	98 2f       	mov	r25, r24
    2e34:	91 70       	andi	r25, 0x01	; 1
    2e36:	89 2f       	mov	r24, r25
    2e38:	87 95       	ror	r24
    2e3a:	88 27       	eor	r24, r24
    2e3c:	87 95       	ror	r24
    2e3e:	4f 70       	andi	r20, 0x0F	; 15
    2e40:	84 2b       	or	r24, r20
    2e42:	80 93 0b 40 	sts	0x400B, r24	; 0x80400b <newStatus+0x1>
    2e46:	80 e2       	ldi	r24, 0x20	; 32
    2e48:	80 93 0c 40 	sts	0x400C, r24	; 0x80400c <newStatus+0x2>
    2e4c:	81 e0       	ldi	r24, 0x01	; 1
    2e4e:	19 16       	cp	r1, r25
    2e50:	14 f4       	brge	.+4      	; 0x2e56 <fetch+0x28c8>
    2e52:	0c 94 d7 0b 	jmp	0x17ae	; 0x17ae <fetch+0x1220>
    2e56:	80 e0       	ldi	r24, 0x00	; 0
    2e58:	0c 94 d7 0b 	jmp	0x17ae	; 0x17ae <fetch+0x1220>
    2e5c:	91 70       	andi	r25, 0x01	; 1
    2e5e:	c1 57       	subi	r28, 0x71	; 113
    2e60:	df 4f       	sbci	r29, 0xFF	; 255
    2e62:	98 83       	st	Y, r25
    2e64:	cf 58       	subi	r28, 0x8F	; 143
    2e66:	d0 40       	sbci	r29, 0x00	; 0
    2e68:	c0 57       	subi	r28, 0x70	; 112
    2e6a:	df 4f       	sbci	r29, 0xFF	; 255
    2e6c:	18 82       	st	Y, r1
    2e6e:	c0 59       	subi	r28, 0x90	; 144
    2e70:	d0 40       	sbci	r29, 0x00	; 0
    2e72:	c1 57       	subi	r28, 0x71	; 113
    2e74:	df 4f       	sbci	r29, 0xFF	; 255
    2e76:	e8 81       	ld	r30, Y
    2e78:	f9 81       	ldd	r31, Y+1	; 0x01
    2e7a:	cf 58       	subi	r28, 0x8F	; 143
    2e7c:	d0 40       	sbci	r29, 0x00	; 0
    2e7e:	e2 95       	swap	r30
    2e80:	f2 95       	swap	r31
    2e82:	f0 7f       	andi	r31, 0xF0	; 240
    2e84:	fe 27       	eor	r31, r30
    2e86:	e0 7f       	andi	r30, 0xF0	; 240
    2e88:	fe 27       	eor	r31, r30
    2e8a:	42 95       	swap	r20
    2e8c:	4f 70       	andi	r20, 0x0F	; 15
    2e8e:	e4 2b       	or	r30, r20
    2e90:	ec 5e       	subi	r30, 0xEC	; 236
    2e92:	ff 4a       	sbci	r31, 0xAF	; 175
    2e94:	80 81       	ld	r24, Z
    2e96:	a8 2f       	mov	r26, r24
    2e98:	a1 70       	andi	r26, 0x01	; 1
    2e9a:	6a 2f       	mov	r22, r26
    2e9c:	62 95       	swap	r22
    2e9e:	66 0f       	add	r22, r22
    2ea0:	60 7e       	andi	r22, 0xE0	; 224
    2ea2:	70 91 0c 40 	lds	r23, 0x400C	; 0x80400c <newStatus+0x2>
    2ea6:	7c 71       	andi	r23, 0x1C	; 28
    2ea8:	90 e0       	ldi	r25, 0x00	; 0
    2eaa:	ac 01       	movw	r20, r24
    2eac:	56 95       	lsr	r21
    2eae:	47 95       	ror	r20
    2eb0:	40 93 12 50 	sts	0x5012, r20	; 0x805012 <result>
    2eb4:	50 93 13 50 	sts	0x5013, r21	; 0x805013 <result+0x1>
    2eb8:	80 91 0b 40 	lds	r24, 0x400B	; 0x80400b <newStatus+0x1>
    2ebc:	8f 77       	andi	r24, 0x7F	; 127
    2ebe:	80 93 0b 40 	sts	0x400B, r24	; 0x80400b <newStatus+0x1>
    2ec2:	87 2f       	mov	r24, r23
    2ec4:	86 2b       	or	r24, r22
    2ec6:	80 93 0c 40 	sts	0x400C, r24	; 0x80400c <newStatus+0x2>
    2eca:	81 e0       	ldi	r24, 0x01	; 1
    2ecc:	1a 16       	cp	r1, r26
    2ece:	14 f0       	brlt	.+4      	; 0x2ed4 <fetch+0x2946>
    2ed0:	0c 94 d7 27 	jmp	0x4fae	; 0x4fae <fetch+0x4a20>
    2ed4:	82 95       	swap	r24
    2ed6:	88 0f       	add	r24, r24
    2ed8:	80 7e       	andi	r24, 0xE0	; 224
    2eda:	85 95       	asr	r24
    2edc:	85 95       	asr	r24
    2ede:	85 95       	asr	r24
    2ee0:	85 95       	asr	r24
    2ee2:	85 95       	asr	r24
    2ee4:	98 2f       	mov	r25, r24
    2ee6:	97 70       	andi	r25, 0x07	; 7
    2ee8:	92 95       	swap	r25
    2eea:	90 7f       	andi	r25, 0xF0	; 240
    2eec:	60 91 0b 40 	lds	r22, 0x400B	; 0x80400b <newStatus+0x1>
    2ef0:	6f 78       	andi	r22, 0x8F	; 143
    2ef2:	96 2b       	or	r25, r22
    2ef4:	90 93 0b 40 	sts	0x400B, r25	; 0x80400b <newStatus+0x1>
    2ef8:	91 e0       	ldi	r25, 0x01	; 1
    2efa:	41 15       	cp	r20, r1
    2efc:	51 05       	cpc	r21, r1
    2efe:	09 f0       	breq	.+2      	; 0x2f02 <fetch+0x2974>
    2f00:	90 e0       	ldi	r25, 0x00	; 0
    2f02:	99 0f       	add	r25, r25
    2f04:	99 0f       	add	r25, r25
    2f06:	60 91 0c 40 	lds	r22, 0x400C	; 0x80400c <newStatus+0x2>
    2f0a:	63 7e       	andi	r22, 0xE3	; 227
    2f0c:	96 2b       	or	r25, r22
    2f0e:	90 93 0c 40 	sts	0x400C, r25	; 0x80400c <newStatus+0x2>
    2f12:	91 e0       	ldi	r25, 0x01	; 1
    2f14:	18 16       	cp	r1, r24
    2f16:	14 f0       	brlt	.+4      	; 0x2f1c <fetch+0x298e>
    2f18:	0c 94 b6 27 	jmp	0x4f6c	; 0x4f6c <fetch+0x49de>
    2f1c:	99 0f       	add	r25, r25
    2f1e:	80 91 0b 40 	lds	r24, 0x400B	; 0x80400b <newStatus+0x1>
    2f22:	81 7f       	andi	r24, 0xF1	; 241
    2f24:	89 2b       	or	r24, r25
    2f26:	80 93 0b 40 	sts	0x400B, r24	; 0x80400b <newStatus+0x1>
    2f2a:	40 83       	st	Z, r20
    2f2c:	2e 5f       	subi	r18, 0xFE	; 254
    2f2e:	3f 4f       	sbci	r19, 0xFF	; 255
    2f30:	20 93 10 50 	sts	0x5010, r18	; 0x805010 <PC>
    2f34:	30 93 11 50 	sts	0x5011, r19	; 0x805011 <PC+0x1>
    2f38:	e2 e0       	ldi	r30, 0x02	; 2
    2f3a:	90 e0       	ldi	r25, 0x00	; 0
    2f3c:	0c 94 b2 03 	jmp	0x764	; 0x764 <fetch+0x1d6>
    2f40:	91 70       	andi	r25, 0x01	; 1
    2f42:	c3 57       	subi	r28, 0x73	; 115
    2f44:	df 4f       	sbci	r29, 0xFF	; 255
    2f46:	98 83       	st	Y, r25
    2f48:	cd 58       	subi	r28, 0x8D	; 141
    2f4a:	d0 40       	sbci	r29, 0x00	; 0
    2f4c:	c2 57       	subi	r28, 0x72	; 114
    2f4e:	df 4f       	sbci	r29, 0xFF	; 255
    2f50:	18 82       	st	Y, r1
    2f52:	ce 58       	subi	r28, 0x8E	; 142
    2f54:	d0 40       	sbci	r29, 0x00	; 0
    2f56:	c3 57       	subi	r28, 0x73	; 115
    2f58:	df 4f       	sbci	r29, 0xFF	; 255
    2f5a:	e8 81       	ld	r30, Y
    2f5c:	f9 81       	ldd	r31, Y+1	; 0x01
    2f5e:	cd 58       	subi	r28, 0x8D	; 141
    2f60:	d0 40       	sbci	r29, 0x00	; 0
    2f62:	e2 95       	swap	r30
    2f64:	f2 95       	swap	r31
    2f66:	f0 7f       	andi	r31, 0xF0	; 240
    2f68:	fe 27       	eor	r31, r30
    2f6a:	e0 7f       	andi	r30, 0xF0	; 240
    2f6c:	fe 27       	eor	r31, r30
    2f6e:	42 95       	swap	r20
    2f70:	4f 70       	andi	r20, 0x0F	; 15
    2f72:	e4 2b       	or	r30, r20
    2f74:	ec 5e       	subi	r30, 0xEC	; 236
    2f76:	ff 4a       	sbci	r31, 0xAF	; 175
    2f78:	80 81       	ld	r24, Z
    2f7a:	b8 2f       	mov	r27, r24
    2f7c:	b1 70       	andi	r27, 0x01	; 1
    2f7e:	5b 2f       	mov	r21, r27
    2f80:	52 95       	swap	r21
    2f82:	55 0f       	add	r21, r21
    2f84:	50 7e       	andi	r21, 0xE0	; 224
    2f86:	a0 91 0c 40 	lds	r26, 0x400C	; 0x80400c <newStatus+0x2>
    2f8a:	ac 71       	andi	r26, 0x1C	; 28
    2f8c:	68 2f       	mov	r22, r24
    2f8e:	70 e0       	ldi	r23, 0x00	; 0
    2f90:	76 95       	lsr	r23
    2f92:	67 95       	ror	r22
    2f94:	80 78       	andi	r24, 0x80	; 128
    2f96:	68 2b       	or	r22, r24
    2f98:	60 93 12 50 	sts	0x5012, r22	; 0x805012 <result>
    2f9c:	70 93 13 50 	sts	0x5013, r23	; 0x805013 <result+0x1>
    2fa0:	cb 01       	movw	r24, r22
    2fa2:	88 0f       	add	r24, r24
    2fa4:	89 2f       	mov	r24, r25
    2fa6:	88 1f       	adc	r24, r24
    2fa8:	99 0b       	sbc	r25, r25
    2faa:	91 95       	neg	r25
    2fac:	48 2f       	mov	r20, r24
    2fae:	41 70       	andi	r20, 0x01	; 1
    2fb0:	94 2f       	mov	r25, r20
    2fb2:	80 91 0b 40 	lds	r24, 0x400B	; 0x80400b <newStatus+0x1>
    2fb6:	40 fb       	bst	r20, 0
    2fb8:	87 f9       	bld	r24, 7
    2fba:	80 93 0b 40 	sts	0x400B, r24	; 0x80400b <newStatus+0x1>
    2fbe:	8a 2f       	mov	r24, r26
    2fc0:	85 2b       	or	r24, r21
    2fc2:	80 93 0c 40 	sts	0x400C, r24	; 0x80400c <newStatus+0x2>
    2fc6:	51 e0       	ldi	r21, 0x01	; 1
    2fc8:	b4 17       	cp	r27, r20
    2fca:	11 f4       	brne	.+4      	; 0x2fd0 <fetch+0x2a42>
    2fcc:	0c 94 d4 27 	jmp	0x4fa8	; 0x4fa8 <fetch+0x4a1a>
    2fd0:	80 91 0b 40 	lds	r24, 0x400B	; 0x80400b <newStatus+0x1>
    2fd4:	a8 2f       	mov	r26, r24
    2fd6:	af 78       	andi	r26, 0x8F	; 143
    2fd8:	85 2f       	mov	r24, r21
    2fda:	82 95       	swap	r24
    2fdc:	80 7f       	andi	r24, 0xF0	; 240
    2fde:	8a 2b       	or	r24, r26
    2fe0:	80 93 0b 40 	sts	0x400B, r24	; 0x80400b <newStatus+0x1>
    2fe4:	81 e0       	ldi	r24, 0x01	; 1
    2fe6:	61 15       	cp	r22, r1
    2fe8:	71 05       	cpc	r23, r1
    2fea:	09 f0       	breq	.+2      	; 0x2fee <fetch+0x2a60>
    2fec:	80 e0       	ldi	r24, 0x00	; 0
    2fee:	88 0f       	add	r24, r24
    2ff0:	88 0f       	add	r24, r24
    2ff2:	a0 91 0c 40 	lds	r26, 0x400C	; 0x80400c <newStatus+0x2>
    2ff6:	a3 7e       	andi	r26, 0xE3	; 227
    2ff8:	8a 2b       	or	r24, r26
    2ffa:	80 93 0c 40 	sts	0x400C, r24	; 0x80400c <newStatus+0x2>
    2ffe:	81 e0       	ldi	r24, 0x01	; 1
    3000:	45 17       	cp	r20, r21
    3002:	11 f4       	brne	.+4      	; 0x3008 <fetch+0x2a7a>
    3004:	0c 94 d1 27 	jmp	0x4fa2	; 0x4fa2 <fetch+0x4a14>
    3008:	88 0f       	add	r24, r24
    300a:	40 91 0b 40 	lds	r20, 0x400B	; 0x80400b <newStatus+0x1>
    300e:	41 7f       	andi	r20, 0xF1	; 241
    3010:	84 2b       	or	r24, r20
    3012:	80 93 0b 40 	sts	0x400B, r24	; 0x80400b <newStatus+0x1>
    3016:	60 83       	st	Z, r22
    3018:	2e 5f       	subi	r18, 0xFE	; 254
    301a:	3f 4f       	sbci	r19, 0xFF	; 255
    301c:	20 93 10 50 	sts	0x5010, r18	; 0x805010 <PC>
    3020:	30 93 11 50 	sts	0x5011, r19	; 0x805011 <PC+0x1>
    3024:	e2 e0       	ldi	r30, 0x02	; 2
    3026:	0c 94 b2 03 	jmp	0x764	; 0x764 <fetch+0x1d6>
    302a:	91 70       	andi	r25, 0x01	; 1
    302c:	cf 56       	subi	r28, 0x6F	; 111
    302e:	df 4f       	sbci	r29, 0xFF	; 255
    3030:	98 83       	st	Y, r25
    3032:	c1 59       	subi	r28, 0x91	; 145
    3034:	d0 40       	sbci	r29, 0x00	; 0
    3036:	ce 56       	subi	r28, 0x6E	; 110
    3038:	df 4f       	sbci	r29, 0xFF	; 255
    303a:	18 82       	st	Y, r1
    303c:	c2 59       	subi	r28, 0x92	; 146
    303e:	d0 40       	sbci	r29, 0x00	; 0
    3040:	cf 56       	subi	r28, 0x6F	; 111
    3042:	df 4f       	sbci	r29, 0xFF	; 255
    3044:	e8 81       	ld	r30, Y
    3046:	f9 81       	ldd	r31, Y+1	; 0x01
    3048:	c1 59       	subi	r28, 0x91	; 145
    304a:	d0 40       	sbci	r29, 0x00	; 0
    304c:	e2 95       	swap	r30
    304e:	f2 95       	swap	r31
    3050:	f0 7f       	andi	r31, 0xF0	; 240
    3052:	fe 27       	eor	r31, r30
    3054:	e0 7f       	andi	r30, 0xF0	; 240
    3056:	fe 27       	eor	r31, r30
    3058:	42 95       	swap	r20
    305a:	4f 70       	andi	r20, 0x0F	; 15
    305c:	e4 2b       	or	r30, r20
    305e:	ec 5e       	subi	r30, 0xEC	; 236
    3060:	ff 4a       	sbci	r31, 0xAF	; 175
    3062:	80 81       	ld	r24, Z
    3064:	b8 2f       	mov	r27, r24
    3066:	b1 70       	andi	r27, 0x01	; 1
    3068:	7b 2f       	mov	r23, r27
    306a:	72 95       	swap	r23
    306c:	77 0f       	add	r23, r23
    306e:	70 7e       	andi	r23, 0xE0	; 224
    3070:	a0 91 0c 40 	lds	r26, 0x400C	; 0x80400c <newStatus+0x2>
    3074:	ac 71       	andi	r26, 0x1C	; 28
    3076:	40 91 0f 50 	lds	r20, 0x500F	; 0x80500f <SREG_status+0x2>
    307a:	45 95       	asr	r20
    307c:	45 95       	asr	r20
    307e:	45 95       	asr	r20
    3080:	45 95       	asr	r20
    3082:	45 95       	asr	r20
    3084:	60 e8       	ldi	r22, 0x80	; 128
    3086:	46 03       	mulsu	r20, r22
    3088:	a0 01       	movw	r20, r0
    308a:	11 24       	eor	r1, r1
    308c:	90 e0       	ldi	r25, 0x00	; 0
    308e:	96 95       	lsr	r25
    3090:	87 95       	ror	r24
    3092:	48 2b       	or	r20, r24
    3094:	59 2b       	or	r21, r25
    3096:	40 93 12 50 	sts	0x5012, r20	; 0x805012 <result>
    309a:	50 93 13 50 	sts	0x5013, r21	; 0x805013 <result+0x1>
    309e:	ca 01       	movw	r24, r20
    30a0:	88 0f       	add	r24, r24
    30a2:	89 2f       	mov	r24, r25
    30a4:	88 1f       	adc	r24, r24
    30a6:	99 0b       	sbc	r25, r25
    30a8:	91 95       	neg	r25
    30aa:	68 2f       	mov	r22, r24
    30ac:	61 70       	andi	r22, 0x01	; 1
    30ae:	96 2f       	mov	r25, r22
    30b0:	80 91 0b 40 	lds	r24, 0x400B	; 0x80400b <newStatus+0x1>
    30b4:	60 fb       	bst	r22, 0
    30b6:	87 f9       	bld	r24, 7
    30b8:	80 93 0b 40 	sts	0x400B, r24	; 0x80400b <newStatus+0x1>
    30bc:	8a 2f       	mov	r24, r26
    30be:	87 2b       	or	r24, r23
    30c0:	80 93 0c 40 	sts	0x400C, r24	; 0x80400c <newStatus+0x2>
    30c4:	71 e0       	ldi	r23, 0x01	; 1
    30c6:	b6 17       	cp	r27, r22
    30c8:	11 f4       	brne	.+4      	; 0x30ce <fetch+0x2b40>
    30ca:	0c 94 94 27 	jmp	0x4f28	; 0x4f28 <fetch+0x499a>
    30ce:	80 91 0b 40 	lds	r24, 0x400B	; 0x80400b <newStatus+0x1>
    30d2:	a8 2f       	mov	r26, r24
    30d4:	af 78       	andi	r26, 0x8F	; 143
    30d6:	87 2f       	mov	r24, r23
    30d8:	82 95       	swap	r24
    30da:	80 7f       	andi	r24, 0xF0	; 240
    30dc:	8a 2b       	or	r24, r26
    30de:	80 93 0b 40 	sts	0x400B, r24	; 0x80400b <newStatus+0x1>
    30e2:	81 e0       	ldi	r24, 0x01	; 1
    30e4:	41 15       	cp	r20, r1
    30e6:	51 05       	cpc	r21, r1
    30e8:	09 f0       	breq	.+2      	; 0x30ec <fetch+0x2b5e>
    30ea:	80 e0       	ldi	r24, 0x00	; 0
    30ec:	88 0f       	add	r24, r24
    30ee:	88 0f       	add	r24, r24
    30f0:	a0 91 0c 40 	lds	r26, 0x400C	; 0x80400c <newStatus+0x2>
    30f4:	a3 7e       	andi	r26, 0xE3	; 227
    30f6:	8a 2b       	or	r24, r26
    30f8:	80 93 0c 40 	sts	0x400C, r24	; 0x80400c <newStatus+0x2>
    30fc:	81 e0       	ldi	r24, 0x01	; 1
    30fe:	67 17       	cp	r22, r23
    3100:	11 f4       	brne	.+4      	; 0x3106 <fetch+0x2b78>
    3102:	0c 94 91 27 	jmp	0x4f22	; 0x4f22 <fetch+0x4994>
    3106:	88 0f       	add	r24, r24
    3108:	50 91 0b 40 	lds	r21, 0x400B	; 0x80400b <newStatus+0x1>
    310c:	51 7f       	andi	r21, 0xF1	; 241
    310e:	85 2b       	or	r24, r21
    3110:	80 93 0b 40 	sts	0x400B, r24	; 0x80400b <newStatus+0x1>
    3114:	40 83       	st	Z, r20
    3116:	2e 5f       	subi	r18, 0xFE	; 254
    3118:	3f 4f       	sbci	r19, 0xFF	; 255
    311a:	20 93 10 50 	sts	0x5010, r18	; 0x805010 <PC>
    311e:	30 93 11 50 	sts	0x5011, r19	; 0x805011 <PC+0x1>
    3122:	e2 e0       	ldi	r30, 0x02	; 2
    3124:	0c 94 b2 03 	jmp	0x764	; 0x764 <fetch+0x1d6>
    3128:	61 e0       	ldi	r22, 0x01	; 1
    312a:	70 e0       	ldi	r23, 0x00	; 0
    312c:	80 e0       	ldi	r24, 0x00	; 0
    312e:	90 e0       	ldi	r25, 0x00	; 0
    3130:	0c 94 31 04 	jmp	0x862	; 0x862 <fetch+0x2d4>
    3134:	ec 5e       	subi	r30, 0xEC	; 236
    3136:	ff 4a       	sbci	r31, 0xAF	; 175
    3138:	20 83       	st	Z, r18
    313a:	e2 e0       	ldi	r30, 0x02	; 2
    313c:	92 e0       	ldi	r25, 0x02	; 2
    313e:	0c 94 22 10 	jmp	0x2044	; 0x2044 <fetch+0x1ab6>
    3142:	82 e0       	ldi	r24, 0x02	; 2
    3144:	0c 94 cc 08 	jmp	0x1198	; 0x1198 <fetch+0xc0a>
    3148:	82 e0       	ldi	r24, 0x02	; 2
    314a:	0c 94 58 0b 	jmp	0x16b0	; 0x16b0 <fetch+0x1122>
    314e:	82 e0       	ldi	r24, 0x02	; 2
    3150:	0c 94 ec 0d 	jmp	0x1bd8	; 0x1bd8 <fetch+0x164a>
    3154:	41 30       	cpi	r20, 0x01	; 1
    3156:	09 f4       	brne	.+2      	; 0x315a <fetch+0x2bcc>
    3158:	29 c6       	rjmp	.+3154   	; 0x3dac <fetch+0x381e>
    315a:	42 30       	cpi	r20, 0x02	; 2
    315c:	09 f4       	brne	.+2      	; 0x3160 <fetch+0x2bd2>
    315e:	57 c7       	rjmp	.+3758   	; 0x400e <fetch+0x3a80>
    3160:	44 30       	cpi	r20, 0x04	; 4
    3162:	11 f4       	brne	.+4      	; 0x3168 <fetch+0x2bda>
    3164:	0c 94 8d 21 	jmp	0x431a	; 0x431a <fetch+0x3d8c>
    3168:	45 30       	cpi	r20, 0x05	; 5
    316a:	11 f4       	brne	.+4      	; 0x3170 <fetch+0x2be2>
    316c:	0c 94 de 22 	jmp	0x45bc	; 0x45bc <fetch+0x402e>
    3170:	47 30       	cpi	r20, 0x07	; 7
    3172:	11 f4       	brne	.+4      	; 0x3178 <fetch+0x2bea>
    3174:	0c 94 60 23 	jmp	0x46c0	; 0x46c0 <fetch+0x4132>
    3178:	49 30       	cpi	r20, 0x09	; 9
    317a:	11 f4       	brne	.+4      	; 0x3180 <fetch+0x2bf2>
    317c:	0c 94 43 24 	jmp	0x4886	; 0x4886 <fetch+0x42f8>
    3180:	4a 30       	cpi	r20, 0x0A	; 10
    3182:	11 f4       	brne	.+4      	; 0x3188 <fetch+0x2bfa>
    3184:	0c 94 33 26 	jmp	0x4c66	; 0x4c66 <fetch+0x46d8>
    3188:	4c 30       	cpi	r20, 0x0C	; 12
    318a:	11 f4       	brne	.+4      	; 0x3190 <fetch+0x2c02>
    318c:	0c 94 a1 26 	jmp	0x4d42	; 0x4d42 <fetch+0x47b4>
    3190:	4d 30       	cpi	r20, 0x0D	; 13
    3192:	11 f4       	brne	.+4      	; 0x3198 <fetch+0x2c0a>
    3194:	0c 94 4a 27 	jmp	0x4e94	; 0x4e94 <fetch+0x4906>
    3198:	4e 30       	cpi	r20, 0x0E	; 14
    319a:	11 f4       	brne	.+4      	; 0x31a0 <fetch+0x2c12>
    319c:	0c 94 ff 26 	jmp	0x4dfe	; 0x4dfe <fetch+0x4870>
    31a0:	4f 30       	cpi	r20, 0x0F	; 15
    31a2:	11 f0       	breq	.+4      	; 0x31a8 <fetch+0x2c1a>
    31a4:	0c 94 68 0e 	jmp	0x1cd0	; 0x1cd0 <fetch+0x1742>
    31a8:	91 70       	andi	r25, 0x01	; 1
    31aa:	e8 96       	adiw	r28, 0x38	; 56
    31ac:	9f af       	std	Y+63, r25	; 0x3f
    31ae:	e8 97       	sbiw	r28, 0x38	; 56
    31b0:	e9 96       	adiw	r28, 0x39	; 57
    31b2:	1f ae       	std	Y+63, r1	; 0x3f
    31b4:	e9 97       	sbiw	r28, 0x39	; 57
    31b6:	e9 96       	adiw	r28, 0x39	; 57
    31b8:	4e ad       	ldd	r20, Y+62	; 0x3e
    31ba:	5f ad       	ldd	r21, Y+63	; 0x3f
    31bc:	e9 97       	sbiw	r28, 0x39	; 57
    31be:	42 95       	swap	r20
    31c0:	52 95       	swap	r21
    31c2:	50 7f       	andi	r21, 0xF0	; 240
    31c4:	54 27       	eor	r21, r20
    31c6:	40 7f       	andi	r20, 0xF0	; 240
    31c8:	54 27       	eor	r21, r20
    31ca:	82 95       	swap	r24
    31cc:	8f 70       	andi	r24, 0x0F	; 15
    31ce:	48 2b       	or	r20, r24
    31d0:	40 93 12 50 	sts	0x5012, r20	; 0x805012 <result>
    31d4:	50 93 13 50 	sts	0x5013, r21	; 0x805013 <result+0x1>
    31d8:	c0 90 71 50 	lds	r12, 0x5071	; 0x805071 <ram+0x5d>
    31dc:	d0 90 72 50 	lds	r13, 0x5072	; 0x805072 <ram+0x5e>
    31e0:	0d 2c       	mov	r0, r13
    31e2:	00 0c       	add	r0, r0
    31e4:	ee 08       	sbc	r14, r14
    31e6:	ff 08       	sbc	r15, r15
    31e8:	ff ef       	ldi	r31, 0xFF	; 255
    31ea:	cf 1a       	sub	r12, r31
    31ec:	df 0a       	sbc	r13, r31
    31ee:	ef 0a       	sbc	r14, r31
    31f0:	ff 0a       	sbc	r15, r31
    31f2:	8d 2d       	mov	r24, r13
    31f4:	90 e0       	ldi	r25, 0x00	; 0
    31f6:	d0 92 72 50 	sts	0x5072, r13	; 0x805072 <ram+0x5e>
    31fa:	c0 92 71 50 	sts	0x5071, r12	; 0x805071 <ram+0x5d>
    31fe:	98 2f       	mov	r25, r24
    3200:	88 27       	eor	r24, r24
    3202:	8c 29       	or	r24, r12
    3204:	fc 01       	movw	r30, r24
    3206:	ec 5e       	subi	r30, 0xEC	; 236
    3208:	ff 4a       	sbci	r31, 0xAF	; 175
    320a:	80 81       	ld	r24, Z
    320c:	fa 01       	movw	r30, r20
    320e:	ec 5e       	subi	r30, 0xEC	; 236
    3210:	ff 4a       	sbci	r31, 0xAF	; 175
    3212:	80 83       	st	Z, r24
    3214:	2e 5f       	subi	r18, 0xFE	; 254
    3216:	3f 4f       	sbci	r19, 0xFF	; 255
    3218:	20 93 10 50 	sts	0x5010, r18	; 0x805010 <PC>
    321c:	30 93 11 50 	sts	0x5011, r19	; 0x805011 <PC+0x1>
    3220:	02 e0       	ldi	r16, 0x02	; 2
    3222:	80 0e       	add	r8, r16
    3224:	91 1c       	adc	r9, r1
    3226:	a1 1c       	adc	r10, r1
    3228:	b1 1c       	adc	r11, r1
    322a:	80 92 14 93 	sts	0x9314, r8	; 0x809314 <totalcycles>
    322e:	90 92 15 93 	sts	0x9315, r9	; 0x809315 <totalcycles+0x1>
    3232:	a0 92 16 93 	sts	0x9316, r10	; 0x809316 <totalcycles+0x2>
    3236:	b0 92 17 93 	sts	0x9317, r11	; 0x809317 <totalcycles+0x3>
    323a:	e2 e0       	ldi	r30, 0x02	; 2
    323c:	92 e0       	ldi	r25, 0x02	; 2
    323e:	0c 94 b2 03 	jmp	0x764	; 0x764 <fetch+0x1d6>
    3242:	2c 96       	adiw	r28, 0x0c	; 12
    3244:	9f af       	std	Y+63, r25	; 0x3f
    3246:	2c 97       	sbiw	r28, 0x0c	; 12
    3248:	2d 96       	adiw	r28, 0x0d	; 13
    324a:	1f ae       	std	Y+63, r1	; 0x3f
    324c:	2d 97       	sbiw	r28, 0x0d	; 13
    324e:	2d 96       	adiw	r28, 0x0d	; 13
    3250:	ee ad       	ldd	r30, Y+62	; 0x3e
    3252:	ff ad       	ldd	r31, Y+63	; 0x3f
    3254:	2d 97       	sbiw	r28, 0x0d	; 13
    3256:	e2 95       	swap	r30
    3258:	f2 95       	swap	r31
    325a:	f0 7f       	andi	r31, 0xF0	; 240
    325c:	fe 27       	eor	r31, r30
    325e:	e0 7f       	andi	r30, 0xF0	; 240
    3260:	fe 27       	eor	r31, r30
    3262:	98 2f       	mov	r25, r24
    3264:	92 95       	swap	r25
    3266:	9f 70       	andi	r25, 0x0F	; 15
    3268:	e9 2b       	or	r30, r25
    326a:	e0 93 12 50 	sts	0x5012, r30	; 0x805012 <result>
    326e:	f0 93 13 50 	sts	0x5013, r31	; 0x805013 <result+0x1>
    3272:	87 70       	andi	r24, 0x07	; 7
    3274:	80 61       	ori	r24, 0x10	; 16
    3276:	a0 91 32 50 	lds	r26, 0x5032	; 0x805032 <ram+0x1e>
    327a:	b0 91 33 50 	lds	r27, 0x5033	; 0x805033 <ram+0x1f>
    327e:	6d 01       	movw	r12, r26
    3280:	c8 0e       	add	r12, r24
    3282:	d1 1c       	adc	r13, r1
    3284:	c9 82       	std	Y+1, r12	; 0x01
    3286:	da 82       	std	Y+2, r13	; 0x02
    3288:	a6 01       	movw	r20, r12
    328a:	dd 0c       	add	r13, r13
    328c:	66 0b       	sbc	r22, r22
    328e:	77 0b       	sbc	r23, r23
    3290:	6a 01       	movw	r12, r20
    3292:	7b 01       	movw	r14, r22
    3294:	0f ef       	ldi	r16, 0xFF	; 255
    3296:	c0 1a       	sub	r12, r16
    3298:	0f e1       	ldi	r16, 0x1F	; 31
    329a:	d0 0a       	sbc	r13, r16
    329c:	e1 08       	sbc	r14, r1
    329e:	f1 08       	sbc	r15, r1
    32a0:	80 e5       	ldi	r24, 0x50	; 80
    32a2:	90 e4       	ldi	r25, 0x40	; 64
    32a4:	a0 e0       	ldi	r26, 0x00	; 0
    32a6:	b0 e0       	ldi	r27, 0x00	; 0
    32a8:	84 1b       	sub	r24, r20
    32aa:	95 0b       	sbc	r25, r21
    32ac:	a6 0b       	sbc	r26, r22
    32ae:	b7 0b       	sbc	r27, r23
    32b0:	8c 15       	cp	r24, r12
    32b2:	9d 05       	cpc	r25, r13
    32b4:	ae 05       	cpc	r26, r14
    32b6:	bf 05       	cpc	r27, r15
    32b8:	14 f0       	brlt	.+4      	; 0x32be <fetch+0x2d30>
    32ba:	0c 94 98 0f 	jmp	0x1f30	; 0x1f30 <fetch+0x19a2>
    32be:	a9 81       	ldd	r26, Y+1	; 0x01
    32c0:	ba 81       	ldd	r27, Y+2	; 0x02
    32c2:	ac 5e       	subi	r26, 0xEC	; 236
    32c4:	bf 4a       	sbci	r27, 0xAF	; 175
    32c6:	8c 91       	ld	r24, X
    32c8:	0c 94 ea 06 	jmp	0xdd4	; 0xdd4 <fetch+0x846>
    32cc:	a9 2f       	mov	r26, r25
    32ce:	a1 70       	andi	r26, 0x01	; 1
    32d0:	24 96       	adiw	r28, 0x04	; 4
    32d2:	af af       	std	Y+63, r26	; 0x3f
    32d4:	24 97       	sbiw	r28, 0x04	; 4
    32d6:	25 96       	adiw	r28, 0x05	; 5
    32d8:	1f ae       	std	Y+63, r1	; 0x3f
    32da:	25 97       	sbiw	r28, 0x05	; 5
    32dc:	25 96       	adiw	r28, 0x05	; 5
    32de:	ee ad       	ldd	r30, Y+62	; 0x3e
    32e0:	ff ad       	ldd	r31, Y+63	; 0x3f
    32e2:	25 97       	sbiw	r28, 0x05	; 5
    32e4:	e2 95       	swap	r30
    32e6:	f2 95       	swap	r31
    32e8:	f0 7f       	andi	r31, 0xF0	; 240
    32ea:	fe 27       	eor	r31, r30
    32ec:	e0 7f       	andi	r30, 0xF0	; 240
    32ee:	fe 27       	eor	r31, r30
    32f0:	48 2f       	mov	r20, r24
    32f2:	42 95       	swap	r20
    32f4:	4f 70       	andi	r20, 0x0F	; 15
    32f6:	e4 2b       	or	r30, r20
    32f8:	e0 93 12 50 	sts	0x5012, r30	; 0x805012 <result>
    32fc:	f0 93 13 50 	sts	0x5013, r31	; 0x805013 <result+0x1>
    3300:	9c 70       	andi	r25, 0x0C	; 12
    3302:	49 2f       	mov	r20, r25
    3304:	50 e0       	ldi	r21, 0x00	; 0
    3306:	44 0f       	add	r20, r20
    3308:	55 1f       	adc	r21, r21
    330a:	87 70       	andi	r24, 0x07	; 7
    330c:	6a 01       	movw	r12, r20
    330e:	c8 2a       	or	r12, r24
    3310:	c6 01       	movw	r24, r12
    3312:	40 91 32 50 	lds	r20, 0x5032	; 0x805032 <ram+0x1e>
    3316:	50 91 33 50 	lds	r21, 0x5033	; 0x805033 <ram+0x1f>
    331a:	dc 01       	movw	r26, r24
    331c:	a4 0f       	add	r26, r20
    331e:	b5 1f       	adc	r27, r21
    3320:	6d 01       	movw	r12, r26
    3322:	0b 2e       	mov	r0, r27
    3324:	00 0c       	add	r0, r0
    3326:	ee 08       	sbc	r14, r14
    3328:	ff 08       	sbc	r15, r15
    332a:	46 01       	movw	r8, r12
    332c:	57 01       	movw	r10, r14
    332e:	0f ef       	ldi	r16, 0xFF	; 255
    3330:	80 1a       	sub	r8, r16
    3332:	0f e1       	ldi	r16, 0x1F	; 31
    3334:	90 0a       	sbc	r9, r16
    3336:	a1 08       	sbc	r10, r1
    3338:	b1 08       	sbc	r11, r1
    333a:	40 e5       	ldi	r20, 0x50	; 80
    333c:	50 e4       	ldi	r21, 0x40	; 64
    333e:	60 e0       	ldi	r22, 0x00	; 0
    3340:	70 e0       	ldi	r23, 0x00	; 0
    3342:	4c 19       	sub	r20, r12
    3344:	5d 09       	sbc	r21, r13
    3346:	6e 09       	sbc	r22, r14
    3348:	7f 09       	sbc	r23, r15
    334a:	48 15       	cp	r20, r8
    334c:	59 05       	cpc	r21, r9
    334e:	6a 05       	cpc	r22, r10
    3350:	7b 05       	cpc	r23, r11
    3352:	14 f4       	brge	.+4      	; 0x3358 <fetch+0x2dca>
    3354:	0c 94 51 11 	jmp	0x22a2	; 0x22a2 <fetch+0x1d14>
    3358:	8c 91       	ld	r24, X
    335a:	0c 94 ea 06 	jmp	0xdd4	; 0xdd4 <fetch+0x846>
    335e:	9f af       	std	Y+63, r25	; 0x3f
    3360:	21 96       	adiw	r28, 0x01	; 1
    3362:	1f ae       	std	Y+63, r1	; 0x3f
    3364:	21 97       	sbiw	r28, 0x01	; 1
    3366:	21 96       	adiw	r28, 0x01	; 1
    3368:	ee ad       	ldd	r30, Y+62	; 0x3e
    336a:	ff ad       	ldd	r31, Y+63	; 0x3f
    336c:	21 97       	sbiw	r28, 0x01	; 1
    336e:	e2 95       	swap	r30
    3370:	f2 95       	swap	r31
    3372:	f0 7f       	andi	r31, 0xF0	; 240
    3374:	fe 27       	eor	r31, r30
    3376:	e0 7f       	andi	r30, 0xF0	; 240
    3378:	fe 27       	eor	r31, r30
    337a:	98 2f       	mov	r25, r24
    337c:	92 95       	swap	r25
    337e:	9f 70       	andi	r25, 0x0F	; 15
    3380:	e9 2b       	or	r30, r25
    3382:	ec 5e       	subi	r30, 0xEC	; 236
    3384:	ff 4a       	sbci	r31, 0xAF	; 175
    3386:	20 81       	ld	r18, Z
    3388:	e2 2f       	mov	r30, r18
    338a:	f0 e0       	ldi	r31, 0x00	; 0
    338c:	e0 93 12 50 	sts	0x5012, r30	; 0x805012 <result>
    3390:	f0 93 13 50 	sts	0x5013, r31	; 0x805013 <result+0x1>
    3394:	87 70       	andi	r24, 0x07	; 7
    3396:	e0 91 32 50 	lds	r30, 0x5032	; 0x805032 <ram+0x1e>
    339a:	f0 91 33 50 	lds	r31, 0x5033	; 0x805033 <ram+0x1f>
    339e:	e8 0f       	add	r30, r24
    33a0:	f1 1d       	adc	r31, r1
    33a2:	6f 01       	movw	r12, r30
    33a4:	0f 2e       	mov	r0, r31
    33a6:	00 0c       	add	r0, r0
    33a8:	ee 08       	sbc	r14, r14
    33aa:	ff 08       	sbc	r15, r15
    33ac:	46 01       	movw	r8, r12
    33ae:	57 01       	movw	r10, r14
    33b0:	bf ef       	ldi	r27, 0xFF	; 255
    33b2:	8b 1a       	sub	r8, r27
    33b4:	bf e1       	ldi	r27, 0x1F	; 31
    33b6:	9b 0a       	sbc	r9, r27
    33b8:	a1 08       	sbc	r10, r1
    33ba:	b1 08       	sbc	r11, r1
    33bc:	80 e5       	ldi	r24, 0x50	; 80
    33be:	90 e4       	ldi	r25, 0x40	; 64
    33c0:	a0 e0       	ldi	r26, 0x00	; 0
    33c2:	b0 e0       	ldi	r27, 0x00	; 0
    33c4:	8c 19       	sub	r24, r12
    33c6:	9d 09       	sbc	r25, r13
    33c8:	ae 09       	sbc	r26, r14
    33ca:	bf 09       	sbc	r27, r15
    33cc:	88 15       	cp	r24, r8
    33ce:	99 05       	cpc	r25, r9
    33d0:	aa 05       	cpc	r26, r10
    33d2:	bb 05       	cpc	r27, r11
    33d4:	0c f4       	brge	.+2      	; 0x33d8 <fetch+0x2e4a>
    33d6:	ae ce       	rjmp	.-676    	; 0x3134 <fetch+0x2ba6>
    33d8:	20 83       	st	Z, r18
    33da:	c0 90 10 50 	lds	r12, 0x5010	; 0x805010 <PC>
    33de:	d0 90 11 50 	lds	r13, 0x5011	; 0x805011 <PC+0x1>
    33e2:	40 91 14 93 	lds	r20, 0x9314	; 0x809314 <totalcycles>
    33e6:	50 91 15 93 	lds	r21, 0x9315	; 0x809315 <totalcycles+0x1>
    33ea:	60 91 16 93 	lds	r22, 0x9316	; 0x809316 <totalcycles+0x2>
    33ee:	70 91 17 93 	lds	r23, 0x9317	; 0x809317 <totalcycles+0x3>
    33f2:	20 91 0b 40 	lds	r18, 0x400B	; 0x80400b <newStatus+0x1>
    33f6:	92 2f       	mov	r25, r18
    33f8:	99 1f       	adc	r25, r25
    33fa:	99 27       	eor	r25, r25
    33fc:	99 1f       	adc	r25, r25
    33fe:	80 91 0c 40 	lds	r24, 0x400C	; 0x80400c <newStatus+0x2>
    3402:	83 70       	andi	r24, 0x03	; 3
    3404:	88 0f       	add	r24, r24
    3406:	89 2b       	or	r24, r25
    3408:	82 95       	swap	r24
    340a:	88 0f       	add	r24, r24
    340c:	80 7e       	andi	r24, 0xE0	; 224
    340e:	98 2f       	mov	r25, r24
    3410:	95 95       	asr	r25
    3412:	95 95       	asr	r25
    3414:	95 95       	asr	r25
    3416:	95 95       	asr	r25
    3418:	95 95       	asr	r25
    341a:	e0 91 0a 40 	lds	r30, 0x400A	; 0x80400a <newStatus>
    341e:	8e 2f       	mov	r24, r30
    3420:	82 95       	swap	r24
    3422:	86 95       	lsr	r24
    3424:	86 95       	lsr	r24
    3426:	83 70       	andi	r24, 0x03	; 3
    3428:	e2 2f       	mov	r30, r18
    342a:	e1 70       	andi	r30, 0x01	; 1
    342c:	ee 0f       	add	r30, r30
    342e:	ee 0f       	add	r30, r30
    3430:	e8 2b       	or	r30, r24
    3432:	e2 95       	swap	r30
    3434:	ee 0f       	add	r30, r30
    3436:	e0 7e       	andi	r30, 0xE0	; 224
    3438:	e5 95       	asr	r30
    343a:	e5 95       	asr	r30
    343c:	e5 95       	asr	r30
    343e:	e5 95       	asr	r30
    3440:	e5 95       	asr	r30
    3442:	86 01       	movw	r16, r12
    3444:	0c 94 28 10 	jmp	0x2050	; 0x2050 <fetch+0x1ac2>
    3448:	ec 5e       	subi	r30, 0xEC	; 236
    344a:	ff 4a       	sbci	r31, 0xAF	; 175
    344c:	a0 83       	st	Z, r26
    344e:	e2 e0       	ldi	r30, 0x02	; 2
    3450:	92 e0       	ldi	r25, 0x02	; 2
    3452:	0c 94 22 10 	jmp	0x2044	; 0x2044 <fetch+0x1ab6>
    3456:	39 2f       	mov	r19, r25
    3458:	31 70       	andi	r19, 0x01	; 1
    345a:	60 96       	adiw	r28, 0x10	; 16
    345c:	3f af       	std	Y+63, r19	; 0x3f
    345e:	60 97       	sbiw	r28, 0x10	; 16
    3460:	61 96       	adiw	r28, 0x11	; 17
    3462:	1f ae       	std	Y+63, r1	; 0x3f
    3464:	61 97       	sbiw	r28, 0x11	; 17
    3466:	61 96       	adiw	r28, 0x11	; 17
    3468:	ee ad       	ldd	r30, Y+62	; 0x3e
    346a:	ff ad       	ldd	r31, Y+63	; 0x3f
    346c:	61 97       	sbiw	r28, 0x11	; 17
    346e:	e2 95       	swap	r30
    3470:	f2 95       	swap	r31
    3472:	f0 7f       	andi	r31, 0xF0	; 240
    3474:	fe 27       	eor	r31, r30
    3476:	e0 7f       	andi	r30, 0xF0	; 240
    3478:	fe 27       	eor	r31, r30
    347a:	28 2f       	mov	r18, r24
    347c:	22 95       	swap	r18
    347e:	2f 70       	andi	r18, 0x0F	; 15
    3480:	e2 2b       	or	r30, r18
    3482:	ec 5e       	subi	r30, 0xEC	; 236
    3484:	ff 4a       	sbci	r31, 0xAF	; 175
    3486:	a0 81       	ld	r26, Z
    3488:	2a 2f       	mov	r18, r26
    348a:	30 e0       	ldi	r19, 0x00	; 0
    348c:	20 93 12 50 	sts	0x5012, r18	; 0x805012 <result>
    3490:	30 93 13 50 	sts	0x5013, r19	; 0x805013 <result+0x1>
    3494:	9c 70       	andi	r25, 0x0C	; 12
    3496:	29 2f       	mov	r18, r25
    3498:	30 e0       	ldi	r19, 0x00	; 0
    349a:	22 0f       	add	r18, r18
    349c:	33 1f       	adc	r19, r19
    349e:	87 70       	andi	r24, 0x07	; 7
    34a0:	f9 01       	movw	r30, r18
    34a2:	e8 2b       	or	r30, r24
    34a4:	cf 01       	movw	r24, r30
    34a6:	e0 91 32 50 	lds	r30, 0x5032	; 0x805032 <ram+0x1e>
    34aa:	f0 91 33 50 	lds	r31, 0x5033	; 0x805033 <ram+0x1f>
    34ae:	3c ca       	rjmp	.-2952   	; 0x2928 <fetch+0x239a>
    34b0:	88 0f       	add	r24, r24
    34b2:	99 1f       	adc	r25, r25
    34b4:	8a 0f       	add	r24, r26
    34b6:	9b 1f       	adc	r25, r27
    34b8:	80 93 10 50 	sts	0x5010, r24	; 0x805010 <PC>
    34bc:	90 93 11 50 	sts	0x5011, r25	; 0x805011 <PC+0x1>
    34c0:	0c 94 e8 05 	jmp	0xbd0	; 0xbd0 <fetch+0x642>
    34c4:	e9 2f       	mov	r30, r25
    34c6:	e1 70       	andi	r30, 0x01	; 1
    34c8:	68 96       	adiw	r28, 0x18	; 24
    34ca:	ef af       	std	Y+63, r30	; 0x3f
    34cc:	68 97       	sbiw	r28, 0x18	; 24
    34ce:	69 96       	adiw	r28, 0x19	; 25
    34d0:	1f ae       	std	Y+63, r1	; 0x3f
    34d2:	69 97       	sbiw	r28, 0x19	; 25
    34d4:	69 96       	adiw	r28, 0x19	; 25
    34d6:	4e ad       	ldd	r20, Y+62	; 0x3e
    34d8:	5f ad       	ldd	r21, Y+63	; 0x3f
    34da:	69 97       	sbiw	r28, 0x19	; 25
    34dc:	42 95       	swap	r20
    34de:	52 95       	swap	r21
    34e0:	50 7f       	andi	r21, 0xF0	; 240
    34e2:	54 27       	eor	r21, r20
    34e4:	40 7f       	andi	r20, 0xF0	; 240
    34e6:	54 27       	eor	r21, r20
    34e8:	68 2f       	mov	r22, r24
    34ea:	62 95       	swap	r22
    34ec:	6f 70       	andi	r22, 0x0F	; 15
    34ee:	46 2b       	or	r20, r22
    34f0:	40 93 12 50 	sts	0x5012, r20	; 0x805012 <result>
    34f4:	50 93 13 50 	sts	0x5013, r21	; 0x805013 <result+0x1>
    34f8:	9c 70       	andi	r25, 0x0C	; 12
    34fa:	69 2f       	mov	r22, r25
    34fc:	70 e0       	ldi	r23, 0x00	; 0
    34fe:	66 0f       	add	r22, r22
    3500:	77 1f       	adc	r23, r23
    3502:	87 70       	andi	r24, 0x07	; 7
    3504:	6b 01       	movw	r12, r22
    3506:	c8 2a       	or	r12, r24
    3508:	c6 01       	movw	r24, r12
    350a:	80 62       	ori	r24, 0x20	; 32
    350c:	e0 91 30 50 	lds	r30, 0x5030	; 0x805030 <ram+0x1c>
    3510:	f0 91 31 50 	lds	r31, 0x5031	; 0x805031 <ram+0x1d>
    3514:	e8 0f       	add	r30, r24
    3516:	f9 1f       	adc	r31, r25
    3518:	4f 01       	movw	r8, r30
    351a:	0f 2e       	mov	r0, r31
    351c:	00 0c       	add	r0, r0
    351e:	aa 08       	sbc	r10, r10
    3520:	bb 08       	sbc	r11, r11
    3522:	24 01       	movw	r4, r8
    3524:	35 01       	movw	r6, r10
    3526:	0f ef       	ldi	r16, 0xFF	; 255
    3528:	40 1a       	sub	r4, r16
    352a:	0f e1       	ldi	r16, 0x1F	; 31
    352c:	50 0a       	sbc	r5, r16
    352e:	61 08       	sbc	r6, r1
    3530:	71 08       	sbc	r7, r1
    3532:	80 e5       	ldi	r24, 0x50	; 80
    3534:	c8 2e       	mov	r12, r24
    3536:	80 e4       	ldi	r24, 0x40	; 64
    3538:	d8 2e       	mov	r13, r24
    353a:	e1 2c       	mov	r14, r1
    353c:	f1 2c       	mov	r15, r1
    353e:	c8 18       	sub	r12, r8
    3540:	d9 08       	sbc	r13, r9
    3542:	ea 08       	sbc	r14, r10
    3544:	fb 08       	sbc	r15, r11
    3546:	c4 14       	cp	r12, r4
    3548:	d5 04       	cpc	r13, r5
    354a:	e6 04       	cpc	r14, r6
    354c:	f7 04       	cpc	r15, r7
    354e:	14 f4       	brge	.+4      	; 0x3554 <fetch+0x2fc6>
    3550:	0c 94 e6 06 	jmp	0xdcc	; 0xdcc <fetch+0x83e>
    3554:	0c 94 e8 06 	jmp	0xdd0	; 0xdd0 <fetch+0x842>
    3558:	9b af       	std	Y+59, r25	; 0x3b
    355a:	1c ae       	std	Y+60, r1	; 0x3c
    355c:	eb ad       	ldd	r30, Y+59	; 0x3b
    355e:	fc ad       	ldd	r31, Y+60	; 0x3c
    3560:	e2 95       	swap	r30
    3562:	f2 95       	swap	r31
    3564:	f0 7f       	andi	r31, 0xF0	; 240
    3566:	fe 27       	eor	r31, r30
    3568:	e0 7f       	andi	r30, 0xF0	; 240
    356a:	fe 27       	eor	r31, r30
    356c:	98 2f       	mov	r25, r24
    356e:	92 95       	swap	r25
    3570:	9f 70       	andi	r25, 0x0F	; 15
    3572:	e9 2b       	or	r30, r25
    3574:	e0 93 12 50 	sts	0x5012, r30	; 0x805012 <result>
    3578:	f0 93 13 50 	sts	0x5013, r31	; 0x805013 <result+0x1>
    357c:	87 70       	andi	r24, 0x07	; 7
    357e:	a0 91 32 50 	lds	r26, 0x5032	; 0x805032 <ram+0x1e>
    3582:	b0 91 33 50 	lds	r27, 0x5033	; 0x805033 <ram+0x1f>
    3586:	a8 0f       	add	r26, r24
    3588:	b1 1d       	adc	r27, r1
    358a:	6d 01       	movw	r12, r26
    358c:	0b 2e       	mov	r0, r27
    358e:	00 0c       	add	r0, r0
    3590:	ee 08       	sbc	r14, r14
    3592:	ff 08       	sbc	r15, r15
    3594:	46 01       	movw	r8, r12
    3596:	57 01       	movw	r10, r14
    3598:	5f ef       	ldi	r21, 0xFF	; 255
    359a:	85 1a       	sub	r8, r21
    359c:	5f e1       	ldi	r21, 0x1F	; 31
    359e:	95 0a       	sbc	r9, r21
    35a0:	a1 08       	sbc	r10, r1
    35a2:	b1 08       	sbc	r11, r1
    35a4:	40 e5       	ldi	r20, 0x50	; 80
    35a6:	50 e4       	ldi	r21, 0x40	; 64
    35a8:	60 e0       	ldi	r22, 0x00	; 0
    35aa:	70 e0       	ldi	r23, 0x00	; 0
    35ac:	4c 19       	sub	r20, r12
    35ae:	5d 09       	sbc	r21, r13
    35b0:	6e 09       	sbc	r22, r14
    35b2:	7f 09       	sbc	r23, r15
    35b4:	48 15       	cp	r20, r8
    35b6:	59 05       	cpc	r21, r9
    35b8:	6a 05       	cpc	r22, r10
    35ba:	7b 05       	cpc	r23, r11
    35bc:	14 f4       	brge	.+4      	; 0x35c2 <fetch+0x3034>
    35be:	0c 94 51 11 	jmp	0x22a2	; 0x22a2 <fetch+0x1d14>
    35c2:	8c 91       	ld	r24, X
    35c4:	0c 94 ea 06 	jmp	0xdd4	; 0xdd4 <fetch+0x846>
    35c8:	28 96       	adiw	r28, 0x08	; 8
    35ca:	9f af       	std	Y+63, r25	; 0x3f
    35cc:	28 97       	sbiw	r28, 0x08	; 8
    35ce:	29 96       	adiw	r28, 0x09	; 9
    35d0:	1f ae       	std	Y+63, r1	; 0x3f
    35d2:	29 97       	sbiw	r28, 0x09	; 9
    35d4:	29 96       	adiw	r28, 0x09	; 9
    35d6:	ee ad       	ldd	r30, Y+62	; 0x3e
    35d8:	ff ad       	ldd	r31, Y+63	; 0x3f
    35da:	29 97       	sbiw	r28, 0x09	; 9
    35dc:	e2 95       	swap	r30
    35de:	f2 95       	swap	r31
    35e0:	f0 7f       	andi	r31, 0xF0	; 240
    35e2:	fe 27       	eor	r31, r30
    35e4:	e0 7f       	andi	r30, 0xF0	; 240
    35e6:	fe 27       	eor	r31, r30
    35e8:	98 2f       	mov	r25, r24
    35ea:	92 95       	swap	r25
    35ec:	9f 70       	andi	r25, 0x0F	; 15
    35ee:	e9 2b       	or	r30, r25
    35f0:	ec 5e       	subi	r30, 0xEC	; 236
    35f2:	ff 4a       	sbci	r31, 0xAF	; 175
    35f4:	20 81       	ld	r18, Z
    35f6:	e2 2f       	mov	r30, r18
    35f8:	f0 e0       	ldi	r31, 0x00	; 0
    35fa:	e0 93 12 50 	sts	0x5012, r30	; 0x805012 <result>
    35fe:	f0 93 13 50 	sts	0x5013, r31	; 0x805013 <result+0x1>
    3602:	87 70       	andi	r24, 0x07	; 7
    3604:	88 60       	ori	r24, 0x08	; 8
    3606:	e0 91 32 50 	lds	r30, 0x5032	; 0x805032 <ram+0x1e>
    360a:	f0 91 33 50 	lds	r31, 0x5033	; 0x805033 <ram+0x1f>
    360e:	e8 0f       	add	r30, r24
    3610:	f1 1d       	adc	r31, r1
    3612:	6f 01       	movw	r12, r30
    3614:	0f 2e       	mov	r0, r31
    3616:	00 0c       	add	r0, r0
    3618:	ee 08       	sbc	r14, r14
    361a:	ff 08       	sbc	r15, r15
    361c:	46 01       	movw	r8, r12
    361e:	57 01       	movw	r10, r14
    3620:	3f ef       	ldi	r19, 0xFF	; 255
    3622:	83 1a       	sub	r8, r19
    3624:	3f e1       	ldi	r19, 0x1F	; 31
    3626:	93 0a       	sbc	r9, r19
    3628:	a1 08       	sbc	r10, r1
    362a:	b1 08       	sbc	r11, r1
    362c:	80 e5       	ldi	r24, 0x50	; 80
    362e:	90 e4       	ldi	r25, 0x40	; 64
    3630:	a0 e0       	ldi	r26, 0x00	; 0
    3632:	b0 e0       	ldi	r27, 0x00	; 0
    3634:	8c 19       	sub	r24, r12
    3636:	9d 09       	sbc	r25, r13
    3638:	ae 09       	sbc	r26, r14
    363a:	bf 09       	sbc	r27, r15
    363c:	88 15       	cp	r24, r8
    363e:	99 05       	cpc	r25, r9
    3640:	aa 05       	cpc	r26, r10
    3642:	bb 05       	cpc	r27, r11
    3644:	0c f4       	brge	.+2      	; 0x3648 <fetch+0x30ba>
    3646:	76 cd       	rjmp	.-1300   	; 0x3134 <fetch+0x2ba6>
    3648:	20 83       	st	Z, r18
    364a:	40 91 10 50 	lds	r20, 0x5010	; 0x805010 <PC>
    364e:	50 91 11 50 	lds	r21, 0x5011	; 0x805011 <PC+0x1>
    3652:	c9 56       	subi	r28, 0x69	; 105
    3654:	df 4f       	sbci	r29, 0xFF	; 255
    3656:	48 83       	st	Y, r20
    3658:	59 83       	std	Y+1, r21	; 0x01
    365a:	c7 59       	subi	r28, 0x97	; 151
    365c:	d0 40       	sbci	r29, 0x00	; 0
    365e:	0c 94 f2 0f 	jmp	0x1fe4	; 0x1fe4 <fetch+0x1a56>
    3662:	e1 30       	cpi	r30, 0x01	; 1
    3664:	09 f4       	brne	.+2      	; 0x3668 <fetch+0x30da>
    3666:	00 c4       	rjmp	.+2048   	; 0x3e68 <fetch+0x38da>
    3668:	e2 30       	cpi	r30, 0x02	; 2
    366a:	09 f4       	brne	.+2      	; 0x366e <fetch+0x30e0>
    366c:	32 c5       	rjmp	.+2660   	; 0x40d2 <fetch+0x3b44>
    366e:	e9 30       	cpi	r30, 0x09	; 9
    3670:	09 f4       	brne	.+2      	; 0x3674 <fetch+0x30e6>
    3672:	f6 c5       	rjmp	.+3052   	; 0x4260 <fetch+0x3cd2>
    3674:	ea 30       	cpi	r30, 0x0A	; 10
    3676:	09 f4       	brne	.+2      	; 0x367a <fetch+0x30ec>
    3678:	3c c7       	rjmp	.+3704   	; 0x44f2 <fetch+0x3f64>
    367a:	ef 30       	cpi	r30, 0x0F	; 15
    367c:	11 f4       	brne	.+4      	; 0x3682 <fetch+0x30f4>
    367e:	0c 94 d2 23 	jmp	0x47a4	; 0x47a4 <fetch+0x4216>
    3682:	ec 30       	cpi	r30, 0x0C	; 12
    3684:	11 f4       	brne	.+4      	; 0x368a <fetch+0x30fc>
    3686:	0c 94 8f 24 	jmp	0x491e	; 0x491e <fetch+0x4390>
    368a:	ed 30       	cpi	r30, 0x0D	; 13
    368c:	11 f4       	brne	.+4      	; 0x3692 <fetch+0x3104>
    368e:	0c 94 cf 25 	jmp	0x4b9e	; 0x4b9e <fetch+0x4610>
    3692:	ee 30       	cpi	r30, 0x0E	; 14
    3694:	11 f0       	breq	.+4      	; 0x369a <fetch+0x310c>
    3696:	0c 94 68 0e 	jmp	0x1cd0	; 0x1cd0 <fetch+0x1742>
    369a:	91 70       	andi	r25, 0x01	; 1
    369c:	cd 57       	subi	r28, 0x7D	; 125
    369e:	df 4f       	sbci	r29, 0xFF	; 255
    36a0:	98 83       	st	Y, r25
    36a2:	c3 58       	subi	r28, 0x83	; 131
    36a4:	d0 40       	sbci	r29, 0x00	; 0
    36a6:	cc 57       	subi	r28, 0x7C	; 124
    36a8:	df 4f       	sbci	r29, 0xFF	; 255
    36aa:	18 82       	st	Y, r1
    36ac:	c4 58       	subi	r28, 0x84	; 132
    36ae:	d0 40       	sbci	r29, 0x00	; 0
    36b0:	cd 57       	subi	r28, 0x7D	; 125
    36b2:	df 4f       	sbci	r29, 0xFF	; 255
    36b4:	e8 81       	ld	r30, Y
    36b6:	f9 81       	ldd	r31, Y+1	; 0x01
    36b8:	c3 58       	subi	r28, 0x83	; 131
    36ba:	d0 40       	sbci	r29, 0x00	; 0
    36bc:	e2 95       	swap	r30
    36be:	f2 95       	swap	r31
    36c0:	f0 7f       	andi	r31, 0xF0	; 240
    36c2:	fe 27       	eor	r31, r30
    36c4:	e0 7f       	andi	r30, 0xF0	; 240
    36c6:	fe 27       	eor	r31, r30
    36c8:	82 95       	swap	r24
    36ca:	8f 70       	andi	r24, 0x0F	; 15
    36cc:	e8 2b       	or	r30, r24
    36ce:	ec 5e       	subi	r30, 0xEC	; 236
    36d0:	ff 4a       	sbci	r31, 0xAF	; 175
    36d2:	90 81       	ld	r25, Z
    36d4:	49 2f       	mov	r20, r25
    36d6:	50 e0       	ldi	r21, 0x00	; 0
    36d8:	40 93 12 50 	sts	0x5012, r20	; 0x805012 <result>
    36dc:	50 93 13 50 	sts	0x5013, r21	; 0x805013 <result+0x1>
    36e0:	80 91 2e 50 	lds	r24, 0x502E	; 0x80502e <ram+0x1a>
    36e4:	81 11       	cpse	r24, r1
    36e6:	0c 94 ca 25 	jmp	0x4b94	; 0x4b94 <fetch+0x4606>
    36ea:	8f ef       	ldi	r24, 0xFF	; 255
    36ec:	80 93 2e 50 	sts	0x502E, r24	; 0x80502e <ram+0x1a>
    36f0:	80 91 2f 50 	lds	r24, 0x502F	; 0x80502f <ram+0x1b>
    36f4:	81 50       	subi	r24, 0x01	; 1
    36f6:	80 93 2f 50 	sts	0x502F, r24	; 0x80502f <ram+0x1b>
    36fa:	e0 91 2e 50 	lds	r30, 0x502E	; 0x80502e <ram+0x1a>
    36fe:	f0 91 2f 50 	lds	r31, 0x502F	; 0x80502f <ram+0x1b>
    3702:	4f 01       	movw	r8, r30
    3704:	0f 2e       	mov	r0, r31
    3706:	00 0c       	add	r0, r0
    3708:	aa 08       	sbc	r10, r10
    370a:	bb 08       	sbc	r11, r11
    370c:	24 01       	movw	r4, r8
    370e:	35 01       	movw	r6, r10
    3710:	0f ef       	ldi	r16, 0xFF	; 255
    3712:	40 1a       	sub	r4, r16
    3714:	0f e1       	ldi	r16, 0x1F	; 31
    3716:	50 0a       	sbc	r5, r16
    3718:	61 08       	sbc	r6, r1
    371a:	71 08       	sbc	r7, r1
    371c:	40 e5       	ldi	r20, 0x50	; 80
    371e:	50 e4       	ldi	r21, 0x40	; 64
    3720:	60 e0       	ldi	r22, 0x00	; 0
    3722:	70 e0       	ldi	r23, 0x00	; 0
    3724:	48 19       	sub	r20, r8
    3726:	59 09       	sbc	r21, r9
    3728:	6a 09       	sbc	r22, r10
    372a:	7b 09       	sbc	r23, r11
    372c:	44 15       	cp	r20, r4
    372e:	55 05       	cpc	r21, r5
    3730:	66 05       	cpc	r22, r6
    3732:	77 05       	cpc	r23, r7
    3734:	14 f4       	brge	.+4      	; 0x373a <fetch+0x31ac>
    3736:	0c 94 ef 24 	jmp	0x49de	; 0x49de <fetch+0x4450>
    373a:	90 83       	st	Z, r25
    373c:	c0 90 14 93 	lds	r12, 0x9314	; 0x809314 <totalcycles>
    3740:	d0 90 15 93 	lds	r13, 0x9315	; 0x809315 <totalcycles+0x1>
    3744:	e0 90 16 93 	lds	r14, 0x9316	; 0x809316 <totalcycles+0x2>
    3748:	f0 90 17 93 	lds	r15, 0x9317	; 0x809317 <totalcycles+0x3>
    374c:	20 91 10 50 	lds	r18, 0x5010	; 0x805010 <PC>
    3750:	30 91 11 50 	lds	r19, 0x5011	; 0x805011 <PC+0x1>
    3754:	2e 5f       	subi	r18, 0xFE	; 254
    3756:	3f 4f       	sbci	r19, 0xFF	; 255
    3758:	20 93 10 50 	sts	0x5010, r18	; 0x805010 <PC>
    375c:	30 93 11 50 	sts	0x5011, r19	; 0x805011 <PC+0x1>
    3760:	1f ef       	ldi	r17, 0xFF	; 255
    3762:	c1 1a       	sub	r12, r17
    3764:	d1 0a       	sbc	r13, r17
    3766:	e1 0a       	sbc	r14, r17
    3768:	f1 0a       	sbc	r15, r17
    376a:	c0 92 14 93 	sts	0x9314, r12	; 0x809314 <totalcycles>
    376e:	d0 92 15 93 	sts	0x9315, r13	; 0x809315 <totalcycles+0x1>
    3772:	e0 92 16 93 	sts	0x9316, r14	; 0x809316 <totalcycles+0x2>
    3776:	f0 92 17 93 	sts	0x9317, r15	; 0x809317 <totalcycles+0x3>
    377a:	20 91 0b 40 	lds	r18, 0x400B	; 0x80400b <newStatus+0x1>
    377e:	82 2f       	mov	r24, r18
    3780:	88 1f       	adc	r24, r24
    3782:	88 27       	eor	r24, r24
    3784:	88 1f       	adc	r24, r24
    3786:	90 91 0c 40 	lds	r25, 0x400C	; 0x80400c <newStatus+0x2>
    378a:	93 70       	andi	r25, 0x03	; 3
    378c:	99 0f       	add	r25, r25
    378e:	89 2b       	or	r24, r25
    3790:	82 95       	swap	r24
    3792:	88 0f       	add	r24, r24
    3794:	80 7e       	andi	r24, 0xE0	; 224
    3796:	98 2f       	mov	r25, r24
    3798:	95 95       	asr	r25
    379a:	95 95       	asr	r25
    379c:	95 95       	asr	r25
    379e:	95 95       	asr	r25
    37a0:	95 95       	asr	r25
    37a2:	80 91 0a 40 	lds	r24, 0x400A	; 0x80400a <newStatus>
    37a6:	0c 94 86 06 	jmp	0xd0c	; 0xd0c <fetch+0x77e>
    37aa:	59 2f       	mov	r21, r25
    37ac:	51 70       	andi	r21, 0x01	; 1
    37ae:	6c 96       	adiw	r28, 0x1c	; 28
    37b0:	5f af       	std	Y+63, r21	; 0x3f
    37b2:	6c 97       	sbiw	r28, 0x1c	; 28
    37b4:	6d 96       	adiw	r28, 0x1d	; 29
    37b6:	1f ae       	std	Y+63, r1	; 0x3f
    37b8:	6d 97       	sbiw	r28, 0x1d	; 29
    37ba:	6d 96       	adiw	r28, 0x1d	; 29
    37bc:	ee ad       	ldd	r30, Y+62	; 0x3e
    37be:	ff ad       	ldd	r31, Y+63	; 0x3f
    37c0:	6d 97       	sbiw	r28, 0x1d	; 29
    37c2:	e2 95       	swap	r30
    37c4:	f2 95       	swap	r31
    37c6:	f0 7f       	andi	r31, 0xF0	; 240
    37c8:	fe 27       	eor	r31, r30
    37ca:	e0 7f       	andi	r30, 0xF0	; 240
    37cc:	fe 27       	eor	r31, r30
    37ce:	84 2f       	mov	r24, r20
    37d0:	82 95       	swap	r24
    37d2:	8f 70       	andi	r24, 0x0F	; 15
    37d4:	e8 2b       	or	r30, r24
    37d6:	ec 5e       	subi	r30, 0xEC	; 236
    37d8:	ff 4a       	sbci	r31, 0xAF	; 175
    37da:	a0 81       	ld	r26, Z
    37dc:	2a 2f       	mov	r18, r26
    37de:	30 e0       	ldi	r19, 0x00	; 0
    37e0:	20 93 12 50 	sts	0x5012, r18	; 0x805012 <result>
    37e4:	30 93 13 50 	sts	0x5013, r19	; 0x805013 <result+0x1>
    37e8:	9c 70       	andi	r25, 0x0C	; 12
    37ea:	29 2f       	mov	r18, r25
    37ec:	30 e0       	ldi	r19, 0x00	; 0
    37ee:	22 0f       	add	r18, r18
    37f0:	33 1f       	adc	r19, r19
    37f2:	84 2f       	mov	r24, r20
    37f4:	87 70       	andi	r24, 0x07	; 7
    37f6:	b9 01       	movw	r22, r18
    37f8:	68 2b       	or	r22, r24
    37fa:	cb 01       	movw	r24, r22
    37fc:	80 62       	ori	r24, 0x20	; 32
    37fe:	e0 91 30 50 	lds	r30, 0x5030	; 0x805030 <ram+0x1c>
    3802:	f0 91 31 50 	lds	r31, 0x5031	; 0x805031 <ram+0x1d>
    3806:	e8 0f       	add	r30, r24
    3808:	f9 1f       	adc	r31, r25
    380a:	6f 01       	movw	r12, r30
    380c:	0f 2e       	mov	r0, r31
    380e:	00 0c       	add	r0, r0
    3810:	ee 08       	sbc	r14, r14
    3812:	ff 08       	sbc	r15, r15
    3814:	46 01       	movw	r8, r12
    3816:	57 01       	movw	r10, r14
    3818:	7f ef       	ldi	r23, 0xFF	; 255
    381a:	87 1a       	sub	r8, r23
    381c:	7f e1       	ldi	r23, 0x1F	; 31
    381e:	97 0a       	sbc	r9, r23
    3820:	a1 08       	sbc	r10, r1
    3822:	b1 08       	sbc	r11, r1
    3824:	40 e5       	ldi	r20, 0x50	; 80
    3826:	50 e4       	ldi	r21, 0x40	; 64
    3828:	60 e0       	ldi	r22, 0x00	; 0
    382a:	70 e0       	ldi	r23, 0x00	; 0
    382c:	4c 19       	sub	r20, r12
    382e:	5d 09       	sbc	r21, r13
    3830:	6e 09       	sbc	r22, r14
    3832:	7f 09       	sbc	r23, r15
    3834:	48 15       	cp	r20, r8
    3836:	59 05       	cpc	r21, r9
    3838:	6a 05       	cpc	r22, r10
    383a:	7b 05       	cpc	r23, r11
    383c:	0c f4       	brge	.+2      	; 0x3840 <fetch+0x32b2>
    383e:	b3 c0       	rjmp	.+358    	; 0x39a6 <fetch+0x3418>
    3840:	a0 83       	st	Z, r26
    3842:	a0 91 10 50 	lds	r26, 0x5010	; 0x805010 <PC>
    3846:	b0 91 11 50 	lds	r27, 0x5011	; 0x805011 <PC+0x1>
    384a:	20 91 0b 40 	lds	r18, 0x400B	; 0x80400b <newStatus+0x1>
    384e:	92 2f       	mov	r25, r18
    3850:	99 1f       	adc	r25, r25
    3852:	99 27       	eor	r25, r25
    3854:	99 1f       	adc	r25, r25
    3856:	80 91 0c 40 	lds	r24, 0x400C	; 0x80400c <newStatus+0x2>
    385a:	83 70       	andi	r24, 0x03	; 3
    385c:	88 0f       	add	r24, r24
    385e:	89 2b       	or	r24, r25
    3860:	82 95       	swap	r24
    3862:	88 0f       	add	r24, r24
    3864:	80 7e       	andi	r24, 0xE0	; 224
    3866:	98 2f       	mov	r25, r24
    3868:	95 95       	asr	r25
    386a:	95 95       	asr	r25
    386c:	95 95       	asr	r25
    386e:	95 95       	asr	r25
    3870:	95 95       	asr	r25
    3872:	e0 91 0a 40 	lds	r30, 0x400A	; 0x80400a <newStatus>
    3876:	8e 2f       	mov	r24, r30
    3878:	82 95       	swap	r24
    387a:	86 95       	lsr	r24
    387c:	86 95       	lsr	r24
    387e:	83 70       	andi	r24, 0x03	; 3
    3880:	e2 2f       	mov	r30, r18
    3882:	e1 70       	andi	r30, 0x01	; 1
    3884:	ee 0f       	add	r30, r30
    3886:	ee 0f       	add	r30, r30
    3888:	e8 2b       	or	r30, r24
    388a:	e2 95       	swap	r30
    388c:	ee 0f       	add	r30, r30
    388e:	e0 7e       	andi	r30, 0xE0	; 224
    3890:	e5 95       	asr	r30
    3892:	e5 95       	asr	r30
    3894:	e5 95       	asr	r30
    3896:	e5 95       	asr	r30
    3898:	e5 95       	asr	r30
    389a:	8d 01       	movw	r16, r26
    389c:	0c 94 bb 07 	jmp	0xf76	; 0xf76 <fetch+0x9e8>
    38a0:	2e 5f       	subi	r18, 0xFE	; 254
    38a2:	3f 4f       	sbci	r19, 0xFF	; 255
    38a4:	88 0f       	add	r24, r24
    38a6:	99 1f       	adc	r25, r25
    38a8:	28 0f       	add	r18, r24
    38aa:	39 1f       	adc	r19, r25
    38ac:	0c 94 e0 04 	jmp	0x9c0	; 0x9c0 <fetch+0x432>
    38b0:	81 30       	cpi	r24, 0x01	; 1
    38b2:	09 f4       	brne	.+2      	; 0x38b6 <fetch+0x3328>
    38b4:	85 c3       	rjmp	.+1802   	; 0x3fc0 <fetch+0x3a32>
    38b6:	82 30       	cpi	r24, 0x02	; 2
    38b8:	09 f4       	brne	.+2      	; 0x38bc <fetch+0x332e>
    38ba:	71 c4       	rjmp	.+2274   	; 0x419e <fetch+0x3c10>
    38bc:	84 30       	cpi	r24, 0x04	; 4
    38be:	09 f4       	brne	.+2      	; 0x38c2 <fetch+0x3334>
    38c0:	7e c4       	rjmp	.+2300   	; 0x41be <fetch+0x3c30>
    38c2:	86 30       	cpi	r24, 0x06	; 6
    38c4:	11 f0       	breq	.+4      	; 0x38ca <fetch+0x333c>
    38c6:	0c 94 68 0e 	jmp	0x1cd0	; 0x1cd0 <fetch+0x1742>
    38ca:	80 91 0d 50 	lds	r24, 0x500D	; 0x80500d <SREG_status>
    38ce:	88 73       	andi	r24, 0x38	; 56
    38d0:	88 30       	cpi	r24, 0x08	; 8
    38d2:	11 f0       	breq	.+4      	; 0x38d8 <fetch+0x334a>
    38d4:	0c 94 a4 03 	jmp	0x748	; 0x748 <fetch+0x1ba>
    38d8:	0c 94 61 05 	jmp	0xac2	; 0xac2 <fetch+0x534>
    38dc:	40 e0       	ldi	r20, 0x00	; 0
    38de:	0c 94 57 0c 	jmp	0x18ae	; 0x18ae <fetch+0x1320>
    38e2:	40 e0       	ldi	r20, 0x00	; 0
    38e4:	cb 01       	movw	r24, r22
    38e6:	88 0f       	add	r24, r24
    38e8:	89 2f       	mov	r24, r25
    38ea:	88 1f       	adc	r24, r24
    38ec:	99 0b       	sbc	r25, r25
    38ee:	91 95       	neg	r25
    38f0:	0c 94 7c 0a 	jmp	0x14f8	; 0x14f8 <fetch+0xf6a>
    38f4:	6e 96       	adiw	r28, 0x1e	; 30
    38f6:	9f af       	std	Y+63, r25	; 0x3f
    38f8:	6e 97       	sbiw	r28, 0x1e	; 30
    38fa:	6f 96       	adiw	r28, 0x1f	; 31
    38fc:	1f ae       	std	Y+63, r1	; 0x3f
    38fe:	6f 97       	sbiw	r28, 0x1f	; 31
    3900:	6f 96       	adiw	r28, 0x1f	; 31
    3902:	ee ad       	ldd	r30, Y+62	; 0x3e
    3904:	ff ad       	ldd	r31, Y+63	; 0x3f
    3906:	6f 97       	sbiw	r28, 0x1f	; 31
    3908:	e2 95       	swap	r30
    390a:	f2 95       	swap	r31
    390c:	f0 7f       	andi	r31, 0xF0	; 240
    390e:	fe 27       	eor	r31, r30
    3910:	e0 7f       	andi	r30, 0xF0	; 240
    3912:	fe 27       	eor	r31, r30
    3914:	98 2f       	mov	r25, r24
    3916:	92 95       	swap	r25
    3918:	9f 70       	andi	r25, 0x0F	; 15
    391a:	e9 2b       	or	r30, r25
    391c:	ec 5e       	subi	r30, 0xEC	; 236
    391e:	ff 4a       	sbci	r31, 0xAF	; 175
    3920:	87 70       	andi	r24, 0x07	; 7
    3922:	41 e0       	ldi	r20, 0x01	; 1
    3924:	50 e0       	ldi	r21, 0x00	; 0
    3926:	ba 01       	movw	r22, r20
    3928:	02 c0       	rjmp	.+4      	; 0x392e <fetch+0x33a0>
    392a:	66 0f       	add	r22, r22
    392c:	77 1f       	adc	r23, r23
    392e:	8a 95       	dec	r24
    3930:	e2 f7       	brpl	.-8      	; 0x392a <fetch+0x339c>
    3932:	cb 01       	movw	r24, r22
    3934:	90 81       	ld	r25, Z
    3936:	89 2b       	or	r24, r25
    3938:	80 83       	st	Z, r24
    393a:	0c 94 de 04 	jmp	0x9bc	; 0x9bc <fetch+0x42e>
    393e:	8f 3f       	cpi	r24, 0xFF	; 255
    3940:	11 f0       	breq	.+4      	; 0x3946 <fetch+0x33b8>
    3942:	0c 94 21 06 	jmp	0xc42	; 0xc42 <fetch+0x6b4>
    3946:	60 e0       	ldi	r22, 0x00	; 0
    3948:	70 e0       	ldi	r23, 0x00	; 0
    394a:	cb 01       	movw	r24, r22
    394c:	0c 94 31 04 	jmp	0x862	; 0x862 <fetch+0x2d4>
    3950:	48 30       	cpi	r20, 0x08	; 8
    3952:	09 f4       	brne	.+2      	; 0x3956 <fetch+0x33c8>
    3954:	70 c4       	rjmp	.+2272   	; 0x4236 <fetch+0x3ca8>
    3956:	49 30       	cpi	r20, 0x09	; 9
    3958:	09 f4       	brne	.+2      	; 0x395c <fetch+0x33ce>
    395a:	4b c5       	rjmp	.+2710   	; 0x43f2 <fetch+0x3e64>
    395c:	48 36       	cpi	r20, 0x68	; 104
    395e:	09 f4       	brne	.+2      	; 0x3962 <fetch+0x33d4>
    3960:	6e c5       	rjmp	.+2780   	; 0x443e <fetch+0x3eb0>
    3962:	48 37       	cpi	r20, 0x78	; 120
    3964:	09 f4       	brne	.+2      	; 0x3968 <fetch+0x33da>
    3966:	7b c5       	rjmp	.+2806   	; 0x445e <fetch+0x3ed0>
    3968:	48 3e       	cpi	r20, 0xE8	; 232
    396a:	09 f4       	brne	.+2      	; 0x396e <fetch+0x33e0>
    396c:	89 c5       	rjmp	.+2834   	; 0x4480 <fetch+0x3ef2>
    396e:	48 3f       	cpi	r20, 0xF8	; 248
    3970:	09 f4       	brne	.+2      	; 0x3974 <fetch+0x33e6>
    3972:	b7 c5       	rjmp	.+2926   	; 0x44e2 <fetch+0x3f54>
    3974:	84 2f       	mov	r24, r20
    3976:	8f 7d       	andi	r24, 0xDF	; 223
    3978:	88 38       	cpi	r24, 0x88	; 136
    397a:	11 f0       	breq	.+4      	; 0x3980 <fetch+0x33f2>
    397c:	0c 94 54 10 	jmp	0x20a8	; 0x20a8 <fetch+0x1b1a>
    3980:	0c 94 de 04 	jmp	0x9bc	; 0x9bc <fetch+0x42e>
    3984:	ff e7       	ldi	r31, 0x7F	; 127
    3986:	ff 12       	cpse	r15, r31
    3988:	0c 94 10 0e 	jmp	0x1c20	; 0x1c20 <fetch+0x1692>
    398c:	70 e2       	ldi	r23, 0x20	; 32
    398e:	e7 12       	cpse	r14, r23
    3990:	0c 94 10 0e 	jmp	0x1c20	; 0x1c20 <fetch+0x1692>
    3994:	80 91 0b 40 	lds	r24, 0x400B	; 0x80400b <newStatus+0x1>
    3998:	8f 78       	andi	r24, 0x8F	; 143
    399a:	80 61       	ori	r24, 0x10	; 16
    399c:	80 93 0b 40 	sts	0x400B, r24	; 0x80400b <newStatus+0x1>
    39a0:	b1 e0       	ldi	r27, 0x01	; 1
    39a2:	0c 94 10 0e 	jmp	0x1c20	; 0x1c20 <fetch+0x1692>
    39a6:	ec 5e       	subi	r30, 0xEC	; 236
    39a8:	ff 4a       	sbci	r31, 0xAF	; 175
    39aa:	a0 83       	st	Z, r26
    39ac:	e2 e0       	ldi	r30, 0x02	; 2
    39ae:	92 e0       	ldi	r25, 0x02	; 2
    39b0:	c9 56       	subi	r28, 0x69	; 105
    39b2:	df 4f       	sbci	r29, 0xFF	; 255
    39b4:	08 81       	ld	r16, Y
    39b6:	19 81       	ldd	r17, Y+1	; 0x01
    39b8:	c7 59       	subi	r28, 0x97	; 151
    39ba:	d0 40       	sbci	r29, 0x00	; 0
    39bc:	0c 94 bb 07 	jmp	0xf76	; 0xf76 <fetch+0x9e8>
    39c0:	86 39       	cpi	r24, 0x96	; 150
    39c2:	10 f0       	brcs	.+4      	; 0x39c8 <fetch+0x343a>
    39c4:	0c 94 9e 03 	jmp	0x73c	; 0x73c <fetch+0x1ae>
    39c8:	9f 70       	andi	r25, 0x0F	; 15
    39ca:	9c 30       	cpi	r25, 0x0C	; 12
    39cc:	10 f4       	brcc	.+4      	; 0x39d2 <fetch+0x3444>
    39ce:	0c 94 9e 03 	jmp	0x73c	; 0x73c <fetch+0x1ae>
    39d2:	d9 01       	movw	r26, r18
    39d4:	14 96       	adiw	r26, 0x04	; 4
    39d6:	c9 56       	subi	r28, 0x69	; 105
    39d8:	df 4f       	sbci	r29, 0xFF	; 255
    39da:	a8 83       	st	Y, r26
    39dc:	b9 83       	std	Y+1, r27	; 0x01
    39de:	c7 59       	subi	r28, 0x97	; 151
    39e0:	d0 40       	sbci	r29, 0x00	; 0
    39e2:	b3 e0       	ldi	r27, 0x03	; 3
    39e4:	8b 0e       	add	r8, r27
    39e6:	91 1c       	adc	r9, r1
    39e8:	a1 1c       	adc	r10, r1
    39ea:	b1 1c       	adc	r11, r1
    39ec:	80 92 14 93 	sts	0x9314, r8	; 0x809314 <totalcycles>
    39f0:	90 92 15 93 	sts	0x9315, r9	; 0x809315 <totalcycles+0x1>
    39f4:	a0 92 16 93 	sts	0x9316, r10	; 0x809316 <totalcycles+0x2>
    39f8:	b0 92 17 93 	sts	0x9317, r11	; 0x809317 <totalcycles+0x3>
    39fc:	0c 94 a4 03 	jmp	0x748	; 0x748 <fetch+0x1ba>
    3a00:	ec 5e       	subi	r30, 0xEC	; 236
    3a02:	ff 4a       	sbci	r31, 0xAF	; 175
    3a04:	a0 83       	st	Z, r26
    3a06:	e2 e0       	ldi	r30, 0x02	; 2
    3a08:	92 e0       	ldi	r25, 0x02	; 2
    3a0a:	0c 94 fb 10 	jmp	0x21f6	; 0x21f6 <fetch+0x1c68>
    3a0e:	ec 5e       	subi	r30, 0xEC	; 236
    3a10:	ff 4a       	sbci	r31, 0xAF	; 175
    3a12:	20 83       	st	Z, r18
    3a14:	e2 e0       	ldi	r30, 0x02	; 2
    3a16:	92 e0       	ldi	r25, 0x02	; 2
    3a18:	c9 56       	subi	r28, 0x69	; 105
    3a1a:	df 4f       	sbci	r29, 0xFF	; 255
    3a1c:	08 81       	ld	r16, Y
    3a1e:	19 81       	ldd	r17, Y+1	; 0x01
    3a20:	c7 59       	subi	r28, 0x97	; 151
    3a22:	d0 40       	sbci	r29, 0x00	; 0
    3a24:	0c 94 bb 07 	jmp	0xf76	; 0xf76 <fetch+0x9e8>
    3a28:	41 30       	cpi	r20, 0x01	; 1
    3a2a:	09 f4       	brne	.+2      	; 0x3a2e <fetch+0x34a0>
    3a2c:	1d c5       	rjmp	.+2618   	; 0x4468 <fetch+0x3eda>
    3a2e:	44 30       	cpi	r20, 0x04	; 4
    3a30:	09 f4       	brne	.+2      	; 0x3a34 <fetch+0x34a6>
    3a32:	2a c5       	rjmp	.+2644   	; 0x4488 <fetch+0x3efa>
    3a34:	46 30       	cpi	r20, 0x06	; 6
    3a36:	11 f0       	breq	.+4      	; 0x3a3c <fetch+0x34ae>
    3a38:	0c 94 68 0e 	jmp	0x1cd0	; 0x1cd0 <fetch+0x1742>
    3a3c:	40 91 0d 50 	lds	r20, 0x500D	; 0x80500d <SREG_status>
    3a40:	48 73       	andi	r20, 0x38	; 56
    3a42:	11 f0       	breq	.+4      	; 0x3a48 <fetch+0x34ba>
    3a44:	0c 94 a4 03 	jmp	0x748	; 0x748 <fetch+0x1ba>
    3a48:	93 70       	andi	r25, 0x03	; 3
    3a4a:	40 e2       	ldi	r20, 0x20	; 32
    3a4c:	94 9f       	mul	r25, r20
    3a4e:	80 01       	movw	r16, r0
    3a50:	11 24       	eor	r1, r1
    3a52:	86 95       	lsr	r24
    3a54:	86 95       	lsr	r24
    3a56:	86 95       	lsr	r24
    3a58:	b8 01       	movw	r22, r16
    3a5a:	68 2b       	or	r22, r24
    3a5c:	cb 01       	movw	r24, r22
    3a5e:	80 93 12 50 	sts	0x5012, r24	; 0x805012 <result>
    3a62:	90 93 13 50 	sts	0x5013, r25	; 0x805013 <result+0x1>
    3a66:	81 34       	cpi	r24, 0x41	; 65
    3a68:	91 05       	cpc	r25, r1
    3a6a:	0c f4       	brge	.+2      	; 0x3a6e <fetch+0x34e0>
    3a6c:	3a c1       	rjmp	.+628    	; 0x3ce2 <fetch+0x3754>
    3a6e:	3a 95       	dec	r19
    3a70:	88 0f       	add	r24, r24
    3a72:	99 1f       	adc	r25, r25
    3a74:	dc 01       	movw	r26, r24
    3a76:	a2 0f       	add	r26, r18
    3a78:	b3 1f       	adc	r27, r19
    3a7a:	c9 56       	subi	r28, 0x69	; 105
    3a7c:	df 4f       	sbci	r29, 0xFF	; 255
    3a7e:	a8 83       	st	Y, r26
    3a80:	b9 83       	std	Y+1, r27	; 0x01
    3a82:	c7 59       	subi	r28, 0x97	; 151
    3a84:	d0 40       	sbci	r29, 0x00	; 0
    3a86:	0c 94 46 05 	jmp	0xa8c	; 0xa8c <fetch+0x4fe>
    3a8a:	8f 70       	andi	r24, 0x0F	; 15
    3a8c:	e8 2f       	mov	r30, r24
    3a8e:	ee 29       	or	r30, r14
    3a90:	8d 01       	movw	r16, r26
    3a92:	11 27       	eor	r17, r17
    3a94:	0e 0f       	add	r16, r30
    3a96:	11 1d       	adc	r17, r1
    3a98:	e7 fd       	sbrc	r30, 7
    3a9a:	1a 95       	dec	r17
    3a9c:	00 0f       	add	r16, r16
    3a9e:	01 2f       	mov	r16, r17
    3aa0:	00 1f       	adc	r16, r16
    3aa2:	11 0b       	sbc	r17, r17
    3aa4:	11 95       	neg	r17
    3aa6:	01 70       	andi	r16, 0x01	; 1
    3aa8:	0c 94 e6 13 	jmp	0x27cc	; 0x27cc <fetch+0x223e>
    3aac:	99 23       	and	r25, r25
    3aae:	11 f4       	brne	.+4      	; 0x3ab4 <fetch+0x3526>
    3ab0:	0c 94 c7 0d 	jmp	0x1b8e	; 0x1b8e <fetch+0x1600>
    3ab4:	6b 01       	movw	r12, r22
    3ab6:	c8 1a       	sub	r12, r24
    3ab8:	d1 08       	sbc	r13, r1
    3aba:	b1 e0       	ldi	r27, 0x01	; 1
    3abc:	c7 fe       	sbrs	r12, 7
    3abe:	ba c6       	rjmp	.+3444   	; 0x4834 <fetch+0x42a6>
    3ac0:	b2 95       	swap	r27
    3ac2:	bb 0f       	add	r27, r27
    3ac4:	b0 7e       	andi	r27, 0xE0	; 224
    3ac6:	b5 95       	asr	r27
    3ac8:	b5 95       	asr	r27
    3aca:	b5 95       	asr	r27
    3acc:	b5 95       	asr	r27
    3ace:	b5 95       	asr	r27
    3ad0:	0c 94 c8 0d 	jmp	0x1b90	; 0x1b90 <fetch+0x1602>
    3ad4:	88 23       	and	r24, r24
    3ad6:	11 f4       	brne	.+4      	; 0x3adc <fetch+0x354e>
    3ad8:	0c 94 32 0b 	jmp	0x1664	; 0x1664 <fetch+0x10d6>
    3adc:	ff 24       	eor	r15, r15
    3ade:	f3 94       	inc	r15
    3ae0:	e7 fe       	sbrs	r14, 7
    3ae2:	a4 c6       	rjmp	.+3400   	; 0x482c <fetch+0x429e>
    3ae4:	f2 94       	swap	r15
    3ae6:	ff 0c       	add	r15, r15
    3ae8:	f0 ee       	ldi	r31, 0xE0	; 224
    3aea:	ff 22       	and	r15, r31
    3aec:	f5 94       	asr	r15
    3aee:	f5 94       	asr	r15
    3af0:	f5 94       	asr	r15
    3af2:	f5 94       	asr	r15
    3af4:	f5 94       	asr	r15
    3af6:	0c 94 33 0b 	jmp	0x1666	; 0x1666 <fetch+0x10d8>
    3afa:	88 23       	and	r24, r24
    3afc:	11 f4       	brne	.+4      	; 0x3b02 <fetch+0x3574>
    3afe:	0c 94 10 09 	jmp	0x1220	; 0x1220 <fetch+0xc92>
    3b02:	81 e0       	ldi	r24, 0x01	; 1
    3b04:	89 83       	std	Y+1, r24	; 0x01
    3b06:	fa 01       	movw	r30, r20
    3b08:	e9 1b       	sub	r30, r25
    3b0a:	f1 09       	sbc	r31, r1
    3b0c:	e7 ff       	sbrs	r30, 7
    3b0e:	a5 c6       	rjmp	.+3402   	; 0x485a <fetch+0x42cc>
    3b10:	e9 81       	ldd	r30, Y+1	; 0x01
    3b12:	e2 95       	swap	r30
    3b14:	ee 0f       	add	r30, r30
    3b16:	e0 7e       	andi	r30, 0xE0	; 224
    3b18:	e5 95       	asr	r30
    3b1a:	e5 95       	asr	r30
    3b1c:	e5 95       	asr	r30
    3b1e:	e5 95       	asr	r30
    3b20:	e5 95       	asr	r30
    3b22:	e9 83       	std	Y+1, r30	; 0x01
    3b24:	8e 2f       	mov	r24, r30
    3b26:	0c 94 12 09 	jmp	0x1224	; 0x1224 <fetch+0xc96>
    3b2a:	88 23       	and	r24, r24
    3b2c:	11 f4       	brne	.+4      	; 0x3b32 <fetch+0x35a4>
    3b2e:	0c 94 06 0d 	jmp	0x1a0c	; 0x1a0c <fetch+0x147e>
    3b32:	81 e0       	ldi	r24, 0x01	; 1
    3b34:	89 83       	std	Y+1, r24	; 0x01
    3b36:	47 ff       	sbrs	r20, 7
    3b38:	7b c6       	rjmp	.+3318   	; 0x4830 <fetch+0x42a2>
    3b3a:	99 81       	ldd	r25, Y+1	; 0x01
    3b3c:	92 95       	swap	r25
    3b3e:	99 0f       	add	r25, r25
    3b40:	90 7e       	andi	r25, 0xE0	; 224
    3b42:	95 95       	asr	r25
    3b44:	95 95       	asr	r25
    3b46:	95 95       	asr	r25
    3b48:	95 95       	asr	r25
    3b4a:	95 95       	asr	r25
    3b4c:	99 83       	std	Y+1, r25	; 0x01
    3b4e:	ca 01       	movw	r24, r20
    3b50:	88 0f       	add	r24, r24
    3b52:	89 2f       	mov	r24, r25
    3b54:	88 1f       	adc	r24, r24
    3b56:	99 0b       	sbc	r25, r25
    3b58:	91 95       	neg	r25
    3b5a:	79 81       	ldd	r23, Y+1	; 0x01
    3b5c:	d9 80       	ldd	r13, Y+1	; 0x01
    3b5e:	0c 94 0f 0d 	jmp	0x1a1e	; 0x1a1e <fetch+0x1490>
    3b62:	55 23       	and	r21, r21
    3b64:	11 f4       	brne	.+4      	; 0x3b6a <fetch+0x35dc>
    3b66:	0c 94 85 08 	jmp	0x110a	; 0x110a <fetch+0xb7c>
    3b6a:	c4 2e       	mov	r12, r20
    3b6c:	d1 2c       	mov	r13, r1
    3b6e:	c9 82       	std	Y+1, r12	; 0x01
    3b70:	da 82       	std	Y+2, r13	; 0x02
    3b72:	b6 01       	movw	r22, r12
    3b74:	68 1b       	sub	r22, r24
    3b76:	79 0b       	sbc	r23, r25
    3b78:	71 e0       	ldi	r23, 0x01	; 1
    3b7a:	67 ff       	sbrs	r22, 7
    3b7c:	6c c6       	rjmp	.+3288   	; 0x4856 <fetch+0x42c8>
    3b7e:	72 95       	swap	r23
    3b80:	77 0f       	add	r23, r23
    3b82:	70 7e       	andi	r23, 0xE0	; 224
    3b84:	75 95       	asr	r23
    3b86:	75 95       	asr	r23
    3b88:	75 95       	asr	r23
    3b8a:	75 95       	asr	r23
    3b8c:	75 95       	asr	r23
    3b8e:	0c 94 8a 08 	jmp	0x1114	; 0x1114 <fetch+0xb86>
    3b92:	88 23       	and	r24, r24
    3b94:	11 f4       	brne	.+4      	; 0x3b9a <fetch+0x360c>
    3b96:	0c 94 d7 09 	jmp	0x13ae	; 0x13ae <fetch+0xe20>
    3b9a:	61 e0       	ldi	r22, 0x01	; 1
    3b9c:	a7 ff       	sbrs	r26, 7
    3b9e:	6c c6       	rjmp	.+3288   	; 0x4878 <fetch+0x42ea>
    3ba0:	62 95       	swap	r22
    3ba2:	66 0f       	add	r22, r22
    3ba4:	60 7e       	andi	r22, 0xE0	; 224
    3ba6:	65 95       	asr	r22
    3ba8:	65 95       	asr	r22
    3baa:	65 95       	asr	r22
    3bac:	65 95       	asr	r22
    3bae:	65 95       	asr	r22
    3bb0:	cd 01       	movw	r24, r26
    3bb2:	88 0f       	add	r24, r24
    3bb4:	89 2f       	mov	r24, r25
    3bb6:	88 1f       	adc	r24, r24
    3bb8:	99 0b       	sbc	r25, r25
    3bba:	91 95       	neg	r25
    3bbc:	0c 94 de 09 	jmp	0x13bc	; 0x13bc <fetch+0xe2e>
    3bc0:	80 e0       	ldi	r24, 0x00	; 0
    3bc2:	0c 94 9b 0a 	jmp	0x1536	; 0x1536 <fetch+0xfa8>
    3bc6:	80 e0       	ldi	r24, 0x00	; 0
    3bc8:	0c 94 2b 0d 	jmp	0x1a56	; 0x1a56 <fetch+0x14c8>
    3bcc:	80 e0       	ldi	r24, 0x00	; 0
    3bce:	0c 94 68 0b 	jmp	0x16d0	; 0x16d0 <fetch+0x1142>
    3bd2:	80 e0       	ldi	r24, 0x00	; 0
    3bd4:	0c 94 61 09 	jmp	0x12c2	; 0x12c2 <fetch+0xd34>
    3bd8:	40 e0       	ldi	r20, 0x00	; 0
    3bda:	0c 94 1f 12 	jmp	0x243e	; 0x243e <fetch+0x1eb0>
    3bde:	80 e0       	ldi	r24, 0x00	; 0
    3be0:	0c 94 07 0a 	jmp	0x140e	; 0x140e <fetch+0xe80>
    3be4:	00 27       	eor	r16, r16
    3be6:	11 27       	eor	r17, r17
    3be8:	08 1b       	sub	r16, r24
    3bea:	19 0b       	sbc	r17, r25
    3bec:	0c 94 a5 08 	jmp	0x114a	; 0x114a <fetch+0xbbc>
    3bf0:	80 e0       	ldi	r24, 0x00	; 0
    3bf2:	0c 94 89 0c 	jmp	0x1912	; 0x1912 <fetch+0x1384>
    3bf6:	60 e2       	ldi	r22, 0x20	; 32
    3bf8:	e6 12       	cpse	r14, r22
    3bfa:	0c 94 10 0e 	jmp	0x1c20	; 0x1c20 <fetch+0x1692>
    3bfe:	80 91 0b 40 	lds	r24, 0x400B	; 0x80400b <newStatus+0x1>
    3c02:	8f 78       	andi	r24, 0x8F	; 143
    3c04:	80 93 0b 40 	sts	0x400B, r24	; 0x80400b <newStatus+0x1>
    3c08:	b0 e0       	ldi	r27, 0x00	; 0
    3c0a:	0c 94 10 0e 	jmp	0x1c20	; 0x1c20 <fetch+0x1692>
    3c0e:	af e1       	ldi	r26, 0x1F	; 31
    3c10:	b0 e0       	ldi	r27, 0x00	; 0
    3c12:	ee e1       	ldi	r30, 0x1E	; 30
    3c14:	f0 e0       	ldi	r31, 0x00	; 0
    3c16:	0c 94 ce 13 	jmp	0x279c	; 0x279c <fetch+0x220e>
    3c1a:	ad e1       	ldi	r26, 0x1D	; 29
    3c1c:	b0 e0       	ldi	r27, 0x00	; 0
    3c1e:	ec e1       	ldi	r30, 0x1C	; 28
    3c20:	f0 e0       	ldi	r31, 0x00	; 0
    3c22:	0c 94 ce 13 	jmp	0x279c	; 0x279c <fetch+0x220e>
    3c26:	ab e1       	ldi	r26, 0x1B	; 27
    3c28:	b0 e0       	ldi	r27, 0x00	; 0
    3c2a:	ea e1       	ldi	r30, 0x1A	; 26
    3c2c:	f0 e0       	ldi	r31, 0x00	; 0
    3c2e:	0c 94 ce 13 	jmp	0x279c	; 0x279c <fetch+0x220e>
    3c32:	fa 01       	movw	r30, r20
    3c34:	e9 1b       	sub	r30, r25
    3c36:	f1 09       	sbc	r31, r1
    3c38:	ee 0f       	add	r30, r30
    3c3a:	ef 2f       	mov	r30, r31
    3c3c:	ee 1f       	adc	r30, r30
    3c3e:	ff 0b       	sbc	r31, r31
    3c40:	f1 95       	neg	r31
    3c42:	11 e0       	ldi	r17, 0x01	; 1
    3c44:	e1 27       	eor	r30, r17
    3c46:	e1 70       	andi	r30, 0x01	; 1
    3c48:	e9 83       	std	Y+1, r30	; 0x01
    3c4a:	8e 2f       	mov	r24, r30
    3c4c:	0c 94 12 09 	jmp	0x1224	; 0x1224 <fetch+0xc96>
    3c50:	c4 2e       	mov	r12, r20
    3c52:	d1 2c       	mov	r13, r1
    3c54:	c9 82       	std	Y+1, r12	; 0x01
    3c56:	da 82       	std	Y+2, r13	; 0x02
    3c58:	b6 01       	movw	r22, r12
    3c5a:	68 1b       	sub	r22, r24
    3c5c:	79 0b       	sbc	r23, r25
    3c5e:	66 0f       	add	r22, r22
    3c60:	67 2f       	mov	r22, r23
    3c62:	66 1f       	adc	r22, r22
    3c64:	77 0b       	sbc	r23, r23
    3c66:	71 95       	neg	r23
    3c68:	01 e0       	ldi	r16, 0x01	; 1
    3c6a:	60 27       	eor	r22, r16
    3c6c:	76 2f       	mov	r23, r22
    3c6e:	71 70       	andi	r23, 0x01	; 1
    3c70:	0c 94 8a 08 	jmp	0x1114	; 0x1114 <fetch+0xb86>
    3c74:	6f 2f       	mov	r22, r31
    3c76:	70 e0       	ldi	r23, 0x00	; 0
    3c78:	6b 01       	movw	r12, r22
    3c7a:	0c 94 e4 11 	jmp	0x23c8	; 0x23c8 <fetch+0x1e3a>
    3c7e:	ca 01       	movw	r24, r20
    3c80:	88 0f       	add	r24, r24
    3c82:	89 2f       	mov	r24, r25
    3c84:	88 1f       	adc	r24, r24
    3c86:	99 0b       	sbc	r25, r25
    3c88:	91 95       	neg	r25
    3c8a:	6c 01       	movw	r12, r24
    3c8c:	01 e0       	ldi	r16, 0x01	; 1
    3c8e:	c0 26       	eor	r12, r16
    3c90:	c9 82       	std	Y+1, r12	; 0x01
    3c92:	da 82       	std	Y+2, r13	; 0x02
    3c94:	79 81       	ldd	r23, Y+1	; 0x01
    3c96:	71 70       	andi	r23, 0x01	; 1
    3c98:	d7 2e       	mov	r13, r23
    3c9a:	0c 94 0f 0d 	jmp	0x1a1e	; 0x1a1e <fetch+0x1490>
    3c9e:	cd 01       	movw	r24, r26
    3ca0:	88 0f       	add	r24, r24
    3ca2:	89 2f       	mov	r24, r25
    3ca4:	88 1f       	adc	r24, r24
    3ca6:	99 0b       	sbc	r25, r25
    3ca8:	91 95       	neg	r25
    3caa:	bc 01       	movw	r22, r24
    3cac:	01 e0       	ldi	r16, 0x01	; 1
    3cae:	60 27       	eor	r22, r16
    3cb0:	61 70       	andi	r22, 0x01	; 1
    3cb2:	0c 94 de 09 	jmp	0x13bc	; 0x13bc <fetch+0xe2e>
    3cb6:	86 39       	cpi	r24, 0x96	; 150
    3cb8:	10 f0       	brcs	.+4      	; 0x3cbe <fetch+0x3730>
    3cba:	0c 94 9e 03 	jmp	0x73c	; 0x73c <fetch+0x1ae>
    3cbe:	9f 70       	andi	r25, 0x0F	; 15
    3cc0:	9c 30       	cpi	r25, 0x0C	; 12
    3cc2:	10 f4       	brcc	.+4      	; 0x3cc8 <fetch+0x373a>
    3cc4:	0c 94 9e 03 	jmp	0x73c	; 0x73c <fetch+0x1ae>
    3cc8:	0c 94 03 08 	jmp	0x1006	; 0x1006 <fetch+0xa78>
    3ccc:	86 39       	cpi	r24, 0x96	; 150
    3cce:	10 f0       	brcs	.+4      	; 0x3cd4 <fetch+0x3746>
    3cd0:	0c 94 9e 03 	jmp	0x73c	; 0x73c <fetch+0x1ae>
    3cd4:	9f 70       	andi	r25, 0x0F	; 15
    3cd6:	9c 30       	cpi	r25, 0x0C	; 12
    3cd8:	10 f4       	brcc	.+4      	; 0x3cde <fetch+0x3750>
    3cda:	0c 94 9e 03 	jmp	0x73c	; 0x73c <fetch+0x1ae>
    3cde:	0c 94 96 04 	jmp	0x92c	; 0x92c <fetch+0x39e>
    3ce2:	8c 01       	movw	r16, r24
    3ce4:	00 0f       	add	r16, r16
    3ce6:	11 1f       	adc	r17, r17
    3ce8:	68 01       	movw	r12, r16
    3cea:	c2 0e       	add	r12, r18
    3cec:	d3 1e       	adc	r13, r19
    3cee:	c9 56       	subi	r28, 0x69	; 105
    3cf0:	df 4f       	sbci	r29, 0xFF	; 255
    3cf2:	c8 82       	st	Y, r12
    3cf4:	d9 82       	std	Y+1, r13	; 0x01
    3cf6:	c7 59       	subi	r28, 0x97	; 151
    3cf8:	d0 40       	sbci	r29, 0x00	; 0
    3cfa:	0c 94 46 05 	jmp	0xa8c	; 0xa8c <fetch+0x4fe>
    3cfe:	80 e0       	ldi	r24, 0x00	; 0
    3d00:	0c 94 29 14 	jmp	0x2852	; 0x2852 <fetch+0x22c4>
    3d04:	e0 93 30 50 	sts	0x5030, r30	; 0x805030 <ram+0x1c>
    3d08:	f0 93 31 50 	sts	0x5031, r31	; 0x805031 <ram+0x1d>
    3d0c:	0c 94 44 14 	jmp	0x2888	; 0x2888 <fetch+0x22fa>
    3d10:	e0 93 2e 50 	sts	0x502E, r30	; 0x80502e <ram+0x1a>
    3d14:	f0 93 2f 50 	sts	0x502F, r31	; 0x80502f <ram+0x1b>
    3d18:	0c 94 44 14 	jmp	0x2888	; 0x2888 <fetch+0x22fa>
    3d1c:	e0 93 32 50 	sts	0x5032, r30	; 0x805032 <ram+0x1e>
    3d20:	f0 93 33 50 	sts	0x5033, r31	; 0x805033 <ram+0x1f>
    3d24:	0c 94 44 14 	jmp	0x2888	; 0x2888 <fetch+0x22fa>
    3d28:	89 01       	movw	r16, r18
    3d2a:	03 5f       	subi	r16, 0xF3	; 243
    3d2c:	1f 4b       	sbci	r17, 0xBF	; 191
    3d2e:	f8 01       	movw	r30, r16
    3d30:	80 81       	ld	r24, Z
    3d32:	97 01       	movw	r18, r14
    3d34:	23 5f       	subi	r18, 0xF3	; 243
    3d36:	3f 4b       	sbci	r19, 0xBF	; 191
    3d38:	f9 01       	movw	r30, r18
    3d3a:	90 81       	ld	r25, Z
    3d3c:	f8 01       	movw	r30, r16
    3d3e:	90 83       	st	Z, r25
    3d40:	f9 01       	movw	r30, r18
    3d42:	80 83       	st	Z, r24
    3d44:	c7 01       	movw	r24, r14
    3d46:	88 0f       	add	r24, r24
    3d48:	99 1f       	adc	r25, r25
    3d4a:	86 5f       	subi	r24, 0xF6	; 246
    3d4c:	9f 4d       	sbci	r25, 0xDF	; 223
    3d4e:	ee 24       	eor	r14, r14
    3d50:	e3 94       	inc	r14
    3d52:	f1 2c       	mov	r15, r1
    3d54:	fc 01       	movw	r30, r24
    3d56:	e0 82       	st	Z, r14
    3d58:	f1 82       	std	Z+1, r15	; 0x01
    3d5a:	f6 01       	movw	r30, r12
    3d5c:	e0 82       	st	Z, r14
    3d5e:	f1 82       	std	Z+1, r15	; 0x01
    3d60:	9c 91       	ld	r25, X
    3d62:	d3 01       	movw	r26, r6
    3d64:	8c 91       	ld	r24, X
    3d66:	0c 94 82 10 	jmp	0x2104	; 0x2104 <fetch+0x1b76>
    3d6a:	a7 01       	movw	r20, r14
    3d6c:	43 5f       	subi	r20, 0xF3	; 243
    3d6e:	5f 4b       	sbci	r21, 0xBF	; 191
    3d70:	7a 01       	movw	r14, r20
    3d72:	fa 01       	movw	r30, r20
    3d74:	80 81       	ld	r24, Z
    3d76:	ab 01       	movw	r20, r22
    3d78:	43 5f       	subi	r20, 0xF3	; 243
    3d7a:	5f 4b       	sbci	r21, 0xBF	; 191
    3d7c:	fa 01       	movw	r30, r20
    3d7e:	90 81       	ld	r25, Z
    3d80:	f7 01       	movw	r30, r14
    3d82:	90 83       	st	Z, r25
    3d84:	fa 01       	movw	r30, r20
    3d86:	80 83       	st	Z, r24
    3d88:	cb 01       	movw	r24, r22
    3d8a:	88 0f       	add	r24, r24
    3d8c:	99 1f       	adc	r25, r25
    3d8e:	86 5f       	subi	r24, 0xF6	; 246
    3d90:	9f 4d       	sbci	r25, 0xDF	; 223
    3d92:	61 e0       	ldi	r22, 0x01	; 1
    3d94:	70 e0       	ldi	r23, 0x00	; 0
    3d96:	fc 01       	movw	r30, r24
    3d98:	60 83       	st	Z, r22
    3d9a:	71 83       	std	Z+1, r23	; 0x01
    3d9c:	f6 01       	movw	r30, r12
    3d9e:	60 83       	st	Z, r22
    3da0:	71 83       	std	Z+1, r23	; 0x01
    3da2:	9c 91       	ld	r25, X
    3da4:	d8 01       	movw	r26, r16
    3da6:	8c 91       	ld	r24, X
    3da8:	0c 94 4a 13 	jmp	0x2694	; 0x2694 <fetch+0x2106>
    3dac:	91 70       	andi	r25, 0x01	; 1
    3dae:	a0 96       	adiw	r28, 0x20	; 32
    3db0:	9f af       	std	Y+63, r25	; 0x3f
    3db2:	a0 97       	sbiw	r28, 0x20	; 32
    3db4:	a1 96       	adiw	r28, 0x21	; 33
    3db6:	1f ae       	std	Y+63, r1	; 0x3f
    3db8:	a1 97       	sbiw	r28, 0x21	; 33
    3dba:	a1 96       	adiw	r28, 0x21	; 33
    3dbc:	4e ad       	ldd	r20, Y+62	; 0x3e
    3dbe:	5f ad       	ldd	r21, Y+63	; 0x3f
    3dc0:	a1 97       	sbiw	r28, 0x21	; 33
    3dc2:	42 95       	swap	r20
    3dc4:	52 95       	swap	r21
    3dc6:	50 7f       	andi	r21, 0xF0	; 240
    3dc8:	54 27       	eor	r21, r20
    3dca:	40 7f       	andi	r20, 0xF0	; 240
    3dcc:	54 27       	eor	r21, r20
    3dce:	82 95       	swap	r24
    3dd0:	8f 70       	andi	r24, 0x0F	; 15
    3dd2:	fa 01       	movw	r30, r20
    3dd4:	e8 2b       	or	r30, r24
    3dd6:	cf 01       	movw	r24, r30
    3dd8:	80 93 12 50 	sts	0x5012, r24	; 0x805012 <result>
    3ddc:	90 93 13 50 	sts	0x5013, r25	; 0x805013 <result+0x1>
    3de0:	e0 91 32 50 	lds	r30, 0x5032	; 0x805032 <ram+0x1e>
    3de4:	f0 91 33 50 	lds	r31, 0x5033	; 0x805033 <ram+0x1f>
    3de8:	6f 01       	movw	r12, r30
    3dea:	0f 2e       	mov	r0, r31
    3dec:	00 0c       	add	r0, r0
    3dee:	ee 08       	sbc	r14, r14
    3df0:	ff 08       	sbc	r15, r15
    3df2:	26 01       	movw	r4, r12
    3df4:	37 01       	movw	r6, r14
    3df6:	0f ef       	ldi	r16, 0xFF	; 255
    3df8:	40 1a       	sub	r4, r16
    3dfa:	0f e1       	ldi	r16, 0x1F	; 31
    3dfc:	50 0a       	sbc	r5, r16
    3dfe:	61 08       	sbc	r6, r1
    3e00:	71 08       	sbc	r7, r1
    3e02:	40 e5       	ldi	r20, 0x50	; 80
    3e04:	50 e4       	ldi	r21, 0x40	; 64
    3e06:	60 e0       	ldi	r22, 0x00	; 0
    3e08:	70 e0       	ldi	r23, 0x00	; 0
    3e0a:	4c 19       	sub	r20, r12
    3e0c:	5d 09       	sbc	r21, r13
    3e0e:	6e 09       	sbc	r22, r14
    3e10:	7f 09       	sbc	r23, r15
    3e12:	44 15       	cp	r20, r4
    3e14:	55 05       	cpc	r21, r5
    3e16:	66 05       	cpc	r22, r6
    3e18:	77 05       	cpc	r23, r7
    3e1a:	14 f4       	brge	.+4      	; 0x3e20 <fetch+0x3892>
    3e1c:	ec 5e       	subi	r30, 0xEC	; 236
    3e1e:	ff 4a       	sbci	r31, 0xAF	; 175
    3e20:	40 81       	ld	r20, Z
    3e22:	fc 01       	movw	r30, r24
    3e24:	ec 5e       	subi	r30, 0xEC	; 236
    3e26:	ff 4a       	sbci	r31, 0xAF	; 175
    3e28:	40 83       	st	Z, r20
    3e2a:	80 91 32 50 	lds	r24, 0x5032	; 0x805032 <ram+0x1e>
    3e2e:	8f 3f       	cpi	r24, 0xFF	; 255
    3e30:	09 f4       	brne	.+2      	; 0x3e34 <fetch+0x38a6>
    3e32:	a8 c4       	rjmp	.+2384   	; 0x4784 <fetch+0x41f6>
    3e34:	8f 5f       	subi	r24, 0xFF	; 255
    3e36:	80 93 32 50 	sts	0x5032, r24	; 0x805032 <ram+0x1e>
    3e3a:	2e 5f       	subi	r18, 0xFE	; 254
    3e3c:	3f 4f       	sbci	r19, 0xFF	; 255
    3e3e:	20 93 10 50 	sts	0x5010, r18	; 0x805010 <PC>
    3e42:	30 93 11 50 	sts	0x5011, r19	; 0x805011 <PC+0x1>
    3e46:	12 e0       	ldi	r17, 0x02	; 2
    3e48:	81 0e       	add	r8, r17
    3e4a:	91 1c       	adc	r9, r1
    3e4c:	a1 1c       	adc	r10, r1
    3e4e:	b1 1c       	adc	r11, r1
    3e50:	80 92 14 93 	sts	0x9314, r8	; 0x809314 <totalcycles>
    3e54:	90 92 15 93 	sts	0x9315, r9	; 0x809315 <totalcycles+0x1>
    3e58:	a0 92 16 93 	sts	0x9316, r10	; 0x809316 <totalcycles+0x2>
    3e5c:	b0 92 17 93 	sts	0x9317, r11	; 0x809317 <totalcycles+0x3>
    3e60:	e2 e0       	ldi	r30, 0x02	; 2
    3e62:	92 e0       	ldi	r25, 0x02	; 2
    3e64:	0c 94 b2 03 	jmp	0x764	; 0x764 <fetch+0x1d6>
    3e68:	91 70       	andi	r25, 0x01	; 1
    3e6a:	a2 96       	adiw	r28, 0x22	; 34
    3e6c:	9f af       	std	Y+63, r25	; 0x3f
    3e6e:	a2 97       	sbiw	r28, 0x22	; 34
    3e70:	a3 96       	adiw	r28, 0x23	; 35
    3e72:	1f ae       	std	Y+63, r1	; 0x3f
    3e74:	a3 97       	sbiw	r28, 0x23	; 35
    3e76:	a3 96       	adiw	r28, 0x23	; 35
    3e78:	ee ad       	ldd	r30, Y+62	; 0x3e
    3e7a:	ff ad       	ldd	r31, Y+63	; 0x3f
    3e7c:	a3 97       	sbiw	r28, 0x23	; 35
    3e7e:	e2 95       	swap	r30
    3e80:	f2 95       	swap	r31
    3e82:	f0 7f       	andi	r31, 0xF0	; 240
    3e84:	fe 27       	eor	r31, r30
    3e86:	e0 7f       	andi	r30, 0xF0	; 240
    3e88:	fe 27       	eor	r31, r30
    3e8a:	82 95       	swap	r24
    3e8c:	8f 70       	andi	r24, 0x0F	; 15
    3e8e:	e8 2b       	or	r30, r24
    3e90:	ec 5e       	subi	r30, 0xEC	; 236
    3e92:	ff 4a       	sbci	r31, 0xAF	; 175
    3e94:	40 81       	ld	r20, Z
    3e96:	49 83       	std	Y+1, r20	; 0x01
    3e98:	84 2f       	mov	r24, r20
    3e9a:	90 e0       	ldi	r25, 0x00	; 0
    3e9c:	80 93 12 50 	sts	0x5012, r24	; 0x805012 <result>
    3ea0:	90 93 13 50 	sts	0x5013, r25	; 0x805013 <result+0x1>
    3ea4:	e0 91 32 50 	lds	r30, 0x5032	; 0x805032 <ram+0x1e>
    3ea8:	f0 91 33 50 	lds	r31, 0x5033	; 0x805033 <ram+0x1f>
    3eac:	af 01       	movw	r20, r30
    3eae:	0f 2e       	mov	r0, r31
    3eb0:	00 0c       	add	r0, r0
    3eb2:	66 0b       	sbc	r22, r22
    3eb4:	77 0b       	sbc	r23, r23
    3eb6:	4a 01       	movw	r8, r20
    3eb8:	5b 01       	movw	r10, r22
    3eba:	8f ef       	ldi	r24, 0xFF	; 255
    3ebc:	88 1a       	sub	r8, r24
    3ebe:	8f e1       	ldi	r24, 0x1F	; 31
    3ec0:	98 0a       	sbc	r9, r24
    3ec2:	a1 08       	sbc	r10, r1
    3ec4:	b1 08       	sbc	r11, r1
    3ec6:	80 e5       	ldi	r24, 0x50	; 80
    3ec8:	90 e4       	ldi	r25, 0x40	; 64
    3eca:	a0 e0       	ldi	r26, 0x00	; 0
    3ecc:	b0 e0       	ldi	r27, 0x00	; 0
    3ece:	84 1b       	sub	r24, r20
    3ed0:	95 0b       	sbc	r25, r21
    3ed2:	a6 0b       	sbc	r26, r22
    3ed4:	b7 0b       	sbc	r27, r23
    3ed6:	88 15       	cp	r24, r8
    3ed8:	99 05       	cpc	r25, r9
    3eda:	aa 05       	cpc	r26, r10
    3edc:	bb 05       	cpc	r27, r11
    3ede:	0c f4       	brge	.+2      	; 0x3ee2 <fetch+0x3954>
    3ee0:	ba c1       	rjmp	.+884    	; 0x4256 <fetch+0x3cc8>
    3ee2:	99 81       	ldd	r25, Y+1	; 0x01
    3ee4:	90 83       	st	Z, r25
    3ee6:	c0 90 14 93 	lds	r12, 0x9314	; 0x809314 <totalcycles>
    3eea:	d0 90 15 93 	lds	r13, 0x9315	; 0x809315 <totalcycles+0x1>
    3eee:	e0 90 16 93 	lds	r14, 0x9316	; 0x809316 <totalcycles+0x2>
    3ef2:	f0 90 17 93 	lds	r15, 0x9317	; 0x809317 <totalcycles+0x3>
    3ef6:	20 91 10 50 	lds	r18, 0x5010	; 0x805010 <PC>
    3efa:	30 91 11 50 	lds	r19, 0x5011	; 0x805011 <PC+0x1>
    3efe:	80 91 32 50 	lds	r24, 0x5032	; 0x805032 <ram+0x1e>
    3f02:	8f 3f       	cpi	r24, 0xFF	; 255
    3f04:	09 f4       	brne	.+2      	; 0x3f08 <fetch+0x397a>
    3f06:	46 c4       	rjmp	.+2188   	; 0x4794 <fetch+0x4206>
    3f08:	8f 5f       	subi	r24, 0xFF	; 255
    3f0a:	80 93 32 50 	sts	0x5032, r24	; 0x805032 <ram+0x1e>
    3f0e:	2e 5f       	subi	r18, 0xFE	; 254
    3f10:	3f 4f       	sbci	r19, 0xFF	; 255
    3f12:	20 93 10 50 	sts	0x5010, r18	; 0x805010 <PC>
    3f16:	30 93 11 50 	sts	0x5011, r19	; 0x805011 <PC+0x1>
    3f1a:	bf ef       	ldi	r27, 0xFF	; 255
    3f1c:	cb 1a       	sub	r12, r27
    3f1e:	db 0a       	sbc	r13, r27
    3f20:	eb 0a       	sbc	r14, r27
    3f22:	fb 0a       	sbc	r15, r27
    3f24:	c0 92 14 93 	sts	0x9314, r12	; 0x809314 <totalcycles>
    3f28:	d0 92 15 93 	sts	0x9315, r13	; 0x809315 <totalcycles+0x1>
    3f2c:	e0 92 16 93 	sts	0x9316, r14	; 0x809316 <totalcycles+0x2>
    3f30:	f0 92 17 93 	sts	0x9317, r15	; 0x809317 <totalcycles+0x3>
    3f34:	20 91 0b 40 	lds	r18, 0x400B	; 0x80400b <newStatus+0x1>
    3f38:	92 2f       	mov	r25, r18
    3f3a:	99 1f       	adc	r25, r25
    3f3c:	99 27       	eor	r25, r25
    3f3e:	99 1f       	adc	r25, r25
    3f40:	80 91 0c 40 	lds	r24, 0x400C	; 0x80400c <newStatus+0x2>
    3f44:	83 70       	andi	r24, 0x03	; 3
    3f46:	88 0f       	add	r24, r24
    3f48:	89 2b       	or	r24, r25
    3f4a:	0c 94 7a 06 	jmp	0xcf4	; 0xcf4 <fetch+0x766>
    3f4e:	81 11       	cpse	r24, r1
    3f50:	c8 cc       	rjmp	.-1648   	; 0x38e2 <fetch+0x3354>
    3f52:	cb 01       	movw	r24, r22
    3f54:	88 0f       	add	r24, r24
    3f56:	89 2f       	mov	r24, r25
    3f58:	88 1f       	adc	r24, r24
    3f5a:	99 0b       	sbc	r25, r25
    3f5c:	91 95       	neg	r25
    3f5e:	48 2f       	mov	r20, r24
    3f60:	41 70       	andi	r20, 0x01	; 1
    3f62:	0c 94 7c 0a 	jmp	0x14f8	; 0x14f8 <fetch+0xf6a>
    3f66:	81 11       	cpse	r24, r1
    3f68:	b9 cc       	rjmp	.-1678   	; 0x38dc <fetch+0x334e>
    3f6a:	49 81       	ldd	r20, Y+1	; 0x01
    3f6c:	5a 81       	ldd	r21, Y+2	; 0x02
    3f6e:	44 0f       	add	r20, r20
    3f70:	45 2f       	mov	r20, r21
    3f72:	44 1f       	adc	r20, r20
    3f74:	55 0b       	sbc	r21, r21
    3f76:	51 95       	neg	r21
    3f78:	41 70       	andi	r20, 0x01	; 1
    3f7a:	0c 94 57 0c 	jmp	0x18ae	; 0x18ae <fetch+0x1320>
    3f7e:	88 23       	and	r24, r24
    3f80:	09 f4       	brne	.+2      	; 0x3f84 <fetch+0x39f6>
    3f82:	5a c4       	rjmp	.+2228   	; 0x4838 <fetch+0x42aa>
    3f84:	ef 2e       	mov	r14, r31
    3f86:	f1 2c       	mov	r15, r1
    3f88:	80 e0       	ldi	r24, 0x00	; 0
    3f8a:	67 01       	movw	r12, r14
    3f8c:	0c 94 e4 11 	jmp	0x23c8	; 0x23c8 <fetch+0x1e3a>
    3f90:	88 0f       	add	r24, r24
    3f92:	99 1f       	adc	r25, r25
    3f94:	69 01       	movw	r12, r18
    3f96:	c8 0e       	add	r12, r24
    3f98:	d9 1e       	adc	r13, r25
    3f9a:	c9 56       	subi	r28, 0x69	; 105
    3f9c:	df 4f       	sbci	r29, 0xFF	; 255
    3f9e:	c8 82       	st	Y, r12
    3fa0:	d9 82       	std	Y+1, r13	; 0x01
    3fa2:	c7 59       	subi	r28, 0x97	; 151
    3fa4:	d0 40       	sbci	r29, 0x00	; 0
    3fa6:	0c 94 a4 03 	jmp	0x748	; 0x748 <fetch+0x1ba>
    3faa:	86 39       	cpi	r24, 0x96	; 150
    3fac:	10 f0       	brcs	.+4      	; 0x3fb2 <fetch+0x3a24>
    3fae:	0c 94 9e 03 	jmp	0x73c	; 0x73c <fetch+0x1ae>
    3fb2:	9f 70       	andi	r25, 0x0F	; 15
    3fb4:	9c 30       	cpi	r25, 0x0C	; 12
    3fb6:	10 f4       	brcc	.+4      	; 0x3fbc <fetch+0x3a2e>
    3fb8:	0c 94 9e 03 	jmp	0x73c	; 0x73c <fetch+0x1ae>
    3fbc:	0c 94 bd 0e 	jmp	0x1d7a	; 0x1d7a <fetch+0x17ec>
    3fc0:	80 91 0f 50 	lds	r24, 0x500F	; 0x80500f <SREG_status+0x2>
    3fc4:	8c 71       	andi	r24, 0x1C	; 28
    3fc6:	84 30       	cpi	r24, 0x04	; 4
    3fc8:	11 f0       	breq	.+4      	; 0x3fce <fetch+0x3a40>
    3fca:	0c 94 a4 03 	jmp	0x748	; 0x748 <fetch+0x1ba>
    3fce:	89 2f       	mov	r24, r25
    3fd0:	83 70       	andi	r24, 0x03	; 3
    3fd2:	00 e2       	ldi	r16, 0x20	; 32
    3fd4:	80 9f       	mul	r24, r16
    3fd6:	c0 01       	movw	r24, r0
    3fd8:	11 24       	eor	r1, r1
    3fda:	46 95       	lsr	r20
    3fdc:	46 95       	lsr	r20
    3fde:	46 95       	lsr	r20
    3fe0:	84 2b       	or	r24, r20
    3fe2:	80 93 12 50 	sts	0x5012, r24	; 0x805012 <result>
    3fe6:	90 93 13 50 	sts	0x5013, r25	; 0x805013 <result+0x1>
    3fea:	81 34       	cpi	r24, 0x41	; 65
    3fec:	91 05       	cpc	r25, r1
    3fee:	0c f4       	brge	.+2      	; 0x3ff2 <fetch+0x3a64>
    3ff0:	fb c4       	rjmp	.+2550   	; 0x49e8 <fetch+0x445a>
    3ff2:	3a 95       	dec	r19
    3ff4:	88 0f       	add	r24, r24
    3ff6:	99 1f       	adc	r25, r25
    3ff8:	ac 01       	movw	r20, r24
    3ffa:	42 0f       	add	r20, r18
    3ffc:	53 1f       	adc	r21, r19
    3ffe:	c9 56       	subi	r28, 0x69	; 105
    4000:	df 4f       	sbci	r29, 0xFF	; 255
    4002:	48 83       	st	Y, r20
    4004:	59 83       	std	Y+1, r21	; 0x01
    4006:	c7 59       	subi	r28, 0x97	; 151
    4008:	d0 40       	sbci	r29, 0x00	; 0
    400a:	0c 94 a4 03 	jmp	0x748	; 0x748 <fetch+0x1ba>
    400e:	40 91 32 50 	lds	r20, 0x5032	; 0x805032 <ram+0x1e>
    4012:	41 11       	cpse	r20, r1
    4014:	6a c2       	rjmp	.+1236   	; 0x44ea <fetch+0x3f5c>
    4016:	4f ef       	ldi	r20, 0xFF	; 255
    4018:	40 93 32 50 	sts	0x5032, r20	; 0x805032 <ram+0x1e>
    401c:	40 91 33 50 	lds	r20, 0x5033	; 0x805033 <ram+0x1f>
    4020:	41 50       	subi	r20, 0x01	; 1
    4022:	40 93 33 50 	sts	0x5033, r20	; 0x805033 <ram+0x1f>
    4026:	91 70       	andi	r25, 0x01	; 1
    4028:	a4 96       	adiw	r28, 0x24	; 36
    402a:	9f af       	std	Y+63, r25	; 0x3f
    402c:	a4 97       	sbiw	r28, 0x24	; 36
    402e:	a5 96       	adiw	r28, 0x25	; 37
    4030:	1f ae       	std	Y+63, r1	; 0x3f
    4032:	a5 97       	sbiw	r28, 0x25	; 37
    4034:	a5 96       	adiw	r28, 0x25	; 37
    4036:	4e ad       	ldd	r20, Y+62	; 0x3e
    4038:	5f ad       	ldd	r21, Y+63	; 0x3f
    403a:	a5 97       	sbiw	r28, 0x25	; 37
    403c:	42 95       	swap	r20
    403e:	52 95       	swap	r21
    4040:	50 7f       	andi	r21, 0xF0	; 240
    4042:	54 27       	eor	r21, r20
    4044:	40 7f       	andi	r20, 0xF0	; 240
    4046:	54 27       	eor	r21, r20
    4048:	82 95       	swap	r24
    404a:	8f 70       	andi	r24, 0x0F	; 15
    404c:	ba 01       	movw	r22, r20
    404e:	68 2b       	or	r22, r24
    4050:	cb 01       	movw	r24, r22
    4052:	80 93 12 50 	sts	0x5012, r24	; 0x805012 <result>
    4056:	90 93 13 50 	sts	0x5013, r25	; 0x805013 <result+0x1>
    405a:	e0 91 32 50 	lds	r30, 0x5032	; 0x805032 <ram+0x1e>
    405e:	f0 91 33 50 	lds	r31, 0x5033	; 0x805033 <ram+0x1f>
    4062:	6f 01       	movw	r12, r30
    4064:	0f 2e       	mov	r0, r31
    4066:	00 0c       	add	r0, r0
    4068:	ee 08       	sbc	r14, r14
    406a:	ff 08       	sbc	r15, r15
    406c:	26 01       	movw	r4, r12
    406e:	37 01       	movw	r6, r14
    4070:	7f ef       	ldi	r23, 0xFF	; 255
    4072:	47 1a       	sub	r4, r23
    4074:	7f e1       	ldi	r23, 0x1F	; 31
    4076:	57 0a       	sbc	r5, r23
    4078:	61 08       	sbc	r6, r1
    407a:	71 08       	sbc	r7, r1
    407c:	40 e5       	ldi	r20, 0x50	; 80
    407e:	50 e4       	ldi	r21, 0x40	; 64
    4080:	60 e0       	ldi	r22, 0x00	; 0
    4082:	70 e0       	ldi	r23, 0x00	; 0
    4084:	4c 19       	sub	r20, r12
    4086:	5d 09       	sbc	r21, r13
    4088:	6e 09       	sbc	r22, r14
    408a:	7f 09       	sbc	r23, r15
    408c:	44 15       	cp	r20, r4
    408e:	55 05       	cpc	r21, r5
    4090:	66 05       	cpc	r22, r6
    4092:	77 05       	cpc	r23, r7
    4094:	14 f4       	brge	.+4      	; 0x409a <fetch+0x3b0c>
    4096:	ec 5e       	subi	r30, 0xEC	; 236
    4098:	ff 4a       	sbci	r31, 0xAF	; 175
    409a:	40 81       	ld	r20, Z
    409c:	fc 01       	movw	r30, r24
    409e:	ec 5e       	subi	r30, 0xEC	; 236
    40a0:	ff 4a       	sbci	r31, 0xAF	; 175
    40a2:	40 83       	st	Z, r20
    40a4:	2e 5f       	subi	r18, 0xFE	; 254
    40a6:	3f 4f       	sbci	r19, 0xFF	; 255
    40a8:	20 93 10 50 	sts	0x5010, r18	; 0x805010 <PC>
    40ac:	30 93 11 50 	sts	0x5011, r19	; 0x805011 <PC+0x1>
    40b0:	83 e0       	ldi	r24, 0x03	; 3
    40b2:	88 0e       	add	r8, r24
    40b4:	91 1c       	adc	r9, r1
    40b6:	a1 1c       	adc	r10, r1
    40b8:	b1 1c       	adc	r11, r1
    40ba:	80 92 14 93 	sts	0x9314, r8	; 0x809314 <totalcycles>
    40be:	90 92 15 93 	sts	0x9315, r9	; 0x809315 <totalcycles+0x1>
    40c2:	a0 92 16 93 	sts	0x9316, r10	; 0x809316 <totalcycles+0x2>
    40c6:	b0 92 17 93 	sts	0x9317, r11	; 0x809317 <totalcycles+0x3>
    40ca:	e2 e0       	ldi	r30, 0x02	; 2
    40cc:	92 e0       	ldi	r25, 0x02	; 2
    40ce:	0c 94 b2 03 	jmp	0x764	; 0x764 <fetch+0x1d6>
    40d2:	91 70       	andi	r25, 0x01	; 1
    40d4:	a6 96       	adiw	r28, 0x26	; 38
    40d6:	9f af       	std	Y+63, r25	; 0x3f
    40d8:	a6 97       	sbiw	r28, 0x26	; 38
    40da:	a7 96       	adiw	r28, 0x27	; 39
    40dc:	1f ae       	std	Y+63, r1	; 0x3f
    40de:	a7 97       	sbiw	r28, 0x27	; 39
    40e0:	a7 96       	adiw	r28, 0x27	; 39
    40e2:	ee ad       	ldd	r30, Y+62	; 0x3e
    40e4:	ff ad       	ldd	r31, Y+63	; 0x3f
    40e6:	a7 97       	sbiw	r28, 0x27	; 39
    40e8:	e2 95       	swap	r30
    40ea:	f2 95       	swap	r31
    40ec:	f0 7f       	andi	r31, 0xF0	; 240
    40ee:	fe 27       	eor	r31, r30
    40f0:	e0 7f       	andi	r30, 0xF0	; 240
    40f2:	fe 27       	eor	r31, r30
    40f4:	98 2f       	mov	r25, r24
    40f6:	92 95       	swap	r25
    40f8:	9f 70       	andi	r25, 0x0F	; 15
    40fa:	e9 2b       	or	r30, r25
    40fc:	ec 5e       	subi	r30, 0xEC	; 236
    40fe:	ff 4a       	sbci	r31, 0xAF	; 175
    4100:	20 81       	ld	r18, Z
    4102:	42 2f       	mov	r20, r18
    4104:	50 e0       	ldi	r21, 0x00	; 0
    4106:	40 93 12 50 	sts	0x5012, r20	; 0x805012 <result>
    410a:	50 93 13 50 	sts	0x5013, r21	; 0x805013 <result+0x1>
    410e:	90 91 32 50 	lds	r25, 0x5032	; 0x805032 <ram+0x1e>
    4112:	91 11       	cpse	r25, r1
    4114:	d1 c2       	rjmp	.+1442   	; 0x46b8 <fetch+0x412a>
    4116:	9f ef       	ldi	r25, 0xFF	; 255
    4118:	90 93 32 50 	sts	0x5032, r25	; 0x805032 <ram+0x1e>
    411c:	90 91 33 50 	lds	r25, 0x5033	; 0x805033 <ram+0x1f>
    4120:	91 50       	subi	r25, 0x01	; 1
    4122:	90 93 33 50 	sts	0x5033, r25	; 0x805033 <ram+0x1f>
    4126:	87 70       	andi	r24, 0x07	; 7
    4128:	e0 91 32 50 	lds	r30, 0x5032	; 0x805032 <ram+0x1e>
    412c:	f0 91 33 50 	lds	r31, 0x5033	; 0x805033 <ram+0x1f>
    4130:	e8 0f       	add	r30, r24
    4132:	f1 1d       	adc	r31, r1
    4134:	af 01       	movw	r20, r30
    4136:	0f 2e       	mov	r0, r31
    4138:	00 0c       	add	r0, r0
    413a:	66 0b       	sbc	r22, r22
    413c:	77 0b       	sbc	r23, r23
    413e:	4a 01       	movw	r8, r20
    4140:	5b 01       	movw	r10, r22
    4142:	0f ef       	ldi	r16, 0xFF	; 255
    4144:	80 1a       	sub	r8, r16
    4146:	0f e1       	ldi	r16, 0x1F	; 31
    4148:	90 0a       	sbc	r9, r16
    414a:	a1 08       	sbc	r10, r1
    414c:	b1 08       	sbc	r11, r1
    414e:	80 e5       	ldi	r24, 0x50	; 80
    4150:	90 e4       	ldi	r25, 0x40	; 64
    4152:	a0 e0       	ldi	r26, 0x00	; 0
    4154:	b0 e0       	ldi	r27, 0x00	; 0
    4156:	84 1b       	sub	r24, r20
    4158:	95 0b       	sbc	r25, r21
    415a:	a6 0b       	sbc	r26, r22
    415c:	b7 0b       	sbc	r27, r23
    415e:	88 15       	cp	r24, r8
    4160:	99 05       	cpc	r25, r9
    4162:	aa 05       	cpc	r26, r10
    4164:	bb 05       	cpc	r27, r11
    4166:	0c f4       	brge	.+2      	; 0x416a <fetch+0x3bdc>
    4168:	9d c2       	rjmp	.+1338   	; 0x46a4 <fetch+0x4116>
    416a:	20 83       	st	Z, r18
    416c:	20 91 10 50 	lds	r18, 0x5010	; 0x805010 <PC>
    4170:	30 91 11 50 	lds	r19, 0x5011	; 0x805011 <PC+0x1>
    4174:	c0 90 14 93 	lds	r12, 0x9314	; 0x809314 <totalcycles>
    4178:	d0 90 15 93 	lds	r13, 0x9315	; 0x809315 <totalcycles+0x1>
    417c:	e0 90 16 93 	lds	r14, 0x9316	; 0x809316 <totalcycles+0x2>
    4180:	f0 90 17 93 	lds	r15, 0x9317	; 0x809317 <totalcycles+0x3>
    4184:	89 01       	movw	r16, r18
    4186:	0e 5f       	subi	r16, 0xFE	; 254
    4188:	1f 4f       	sbci	r17, 0xFF	; 255
    418a:	00 93 10 50 	sts	0x5010, r16	; 0x805010 <PC>
    418e:	10 93 11 50 	sts	0x5011, r17	; 0x805011 <PC+0x1>
    4192:	3f ef       	ldi	r19, 0xFF	; 255
    4194:	c3 1a       	sub	r12, r19
    4196:	d3 0a       	sbc	r13, r19
    4198:	e3 0a       	sbc	r14, r19
    419a:	f3 0a       	sbc	r15, r19
    419c:	c3 ce       	rjmp	.-634    	; 0x3f24 <fetch+0x3996>
    419e:	80 91 0e 50 	lds	r24, 0x500E	; 0x80500e <SREG_status+0x1>
    41a2:	88 1f       	adc	r24, r24
    41a4:	88 27       	eor	r24, r24
    41a6:	88 1f       	adc	r24, r24
    41a8:	50 91 0f 50 	lds	r21, 0x500F	; 0x80500f <SREG_status+0x2>
    41ac:	53 70       	andi	r21, 0x03	; 3
    41ae:	55 0f       	add	r21, r21
    41b0:	85 2b       	or	r24, r21
    41b2:	81 30       	cpi	r24, 0x01	; 1
    41b4:	11 f0       	breq	.+4      	; 0x41ba <fetch+0x3c2c>
    41b6:	0c 94 a4 03 	jmp	0x748	; 0x748 <fetch+0x1ba>
    41ba:	0c 94 61 05 	jmp	0xac2	; 0xac2 <fetch+0x534>
    41be:	80 91 0e 50 	lds	r24, 0x500E	; 0x80500e <SREG_status+0x1>
    41c2:	8e 70       	andi	r24, 0x0E	; 14
    41c4:	82 30       	cpi	r24, 0x02	; 2
    41c6:	11 f0       	breq	.+4      	; 0x41cc <fetch+0x3c3e>
    41c8:	0c 94 a4 03 	jmp	0x748	; 0x748 <fetch+0x1ba>
    41cc:	00 cf       	rjmp	.-512    	; 0x3fce <fetch+0x3a40>
    41ce:	40 91 0e 50 	lds	r20, 0x500E	; 0x80500e <SREG_status+0x1>
    41d2:	44 1f       	adc	r20, r20
    41d4:	44 27       	eor	r20, r20
    41d6:	44 1f       	adc	r20, r20
    41d8:	50 91 0f 50 	lds	r21, 0x500F	; 0x80500f <SREG_status+0x2>
    41dc:	53 70       	andi	r21, 0x03	; 3
    41de:	55 0f       	add	r21, r21
    41e0:	45 2b       	or	r20, r21
    41e2:	11 f0       	breq	.+4      	; 0x41e8 <fetch+0x3c5a>
    41e4:	0c 94 de 04 	jmp	0x9bc	; 0x9bc <fetch+0x42e>
    41e8:	93 70       	andi	r25, 0x03	; 3
    41ea:	00 e2       	ldi	r16, 0x20	; 32
    41ec:	90 9f       	mul	r25, r16
    41ee:	a0 01       	movw	r20, r0
    41f0:	11 24       	eor	r1, r1
    41f2:	86 95       	lsr	r24
    41f4:	86 95       	lsr	r24
    41f6:	86 95       	lsr	r24
    41f8:	ba 01       	movw	r22, r20
    41fa:	68 2b       	or	r22, r24
    41fc:	cb 01       	movw	r24, r22
    41fe:	80 93 12 50 	sts	0x5012, r24	; 0x805012 <result>
    4202:	90 93 13 50 	sts	0x5013, r25	; 0x805013 <result+0x1>
    4206:	81 34       	cpi	r24, 0x41	; 65
    4208:	91 05       	cpc	r25, r1
    420a:	0c f4       	brge	.+2      	; 0x420e <fetch+0x3c80>
    420c:	37 c3       	rjmp	.+1646   	; 0x487c <fetch+0x42ee>
    420e:	3a 95       	dec	r19
    4210:	88 0f       	add	r24, r24
    4212:	99 1f       	adc	r25, r25
    4214:	28 0f       	add	r18, r24
    4216:	39 1f       	adc	r19, r25
    4218:	72 e0       	ldi	r23, 0x02	; 2
    421a:	87 0e       	add	r8, r23
    421c:	91 1c       	adc	r9, r1
    421e:	a1 1c       	adc	r10, r1
    4220:	b1 1c       	adc	r11, r1
    4222:	80 92 14 93 	sts	0x9314, r8	; 0x809314 <totalcycles>
    4226:	90 92 15 93 	sts	0x9315, r9	; 0x809315 <totalcycles+0x1>
    422a:	a0 92 16 93 	sts	0x9316, r10	; 0x809316 <totalcycles+0x2>
    422e:	b0 92 17 93 	sts	0x9317, r11	; 0x809317 <totalcycles+0x3>
    4232:	0c 94 de 04 	jmp	0x9bc	; 0x9bc <fetch+0x42e>
    4236:	80 91 0c 40 	lds	r24, 0x400C	; 0x80400c <newStatus+0x2>
    423a:	8f 71       	andi	r24, 0x1F	; 31
    423c:	80 62       	ori	r24, 0x20	; 32
    423e:	80 93 0c 40 	sts	0x400C, r24	; 0x80400c <newStatus+0x2>
    4242:	2e 5f       	subi	r18, 0xFE	; 254
    4244:	3f 4f       	sbci	r19, 0xFF	; 255
    4246:	20 93 10 50 	sts	0x5010, r18	; 0x805010 <PC>
    424a:	30 93 11 50 	sts	0x5011, r19	; 0x805011 <PC+0x1>
    424e:	e2 e0       	ldi	r30, 0x02	; 2
    4250:	92 e0       	ldi	r25, 0x02	; 2
    4252:	0c 94 b2 03 	jmp	0x764	; 0x764 <fetch+0x1d6>
    4256:	ec 5e       	subi	r30, 0xEC	; 236
    4258:	ff 4a       	sbci	r31, 0xAF	; 175
    425a:	a9 81       	ldd	r26, Y+1	; 0x01
    425c:	a0 83       	st	Z, r26
    425e:	4f ce       	rjmp	.-866    	; 0x3efe <fetch+0x3970>
    4260:	91 70       	andi	r25, 0x01	; 1
    4262:	ea 96       	adiw	r28, 0x3a	; 58
    4264:	9f af       	std	Y+63, r25	; 0x3f
    4266:	ea 97       	sbiw	r28, 0x3a	; 58
    4268:	eb 96       	adiw	r28, 0x3b	; 59
    426a:	1f ae       	std	Y+63, r1	; 0x3f
    426c:	eb 97       	sbiw	r28, 0x3b	; 59
    426e:	eb 96       	adiw	r28, 0x3b	; 59
    4270:	ee ad       	ldd	r30, Y+62	; 0x3e
    4272:	ff ad       	ldd	r31, Y+63	; 0x3f
    4274:	eb 97       	sbiw	r28, 0x3b	; 59
    4276:	e2 95       	swap	r30
    4278:	f2 95       	swap	r31
    427a:	f0 7f       	andi	r31, 0xF0	; 240
    427c:	fe 27       	eor	r31, r30
    427e:	e0 7f       	andi	r30, 0xF0	; 240
    4280:	fe 27       	eor	r31, r30
    4282:	82 95       	swap	r24
    4284:	8f 70       	andi	r24, 0x0F	; 15
    4286:	e8 2b       	or	r30, r24
    4288:	ec 5e       	subi	r30, 0xEC	; 236
    428a:	ff 4a       	sbci	r31, 0xAF	; 175
    428c:	80 81       	ld	r24, Z
    428e:	48 2f       	mov	r20, r24
    4290:	50 e0       	ldi	r21, 0x00	; 0
    4292:	40 93 12 50 	sts	0x5012, r20	; 0x805012 <result>
    4296:	50 93 13 50 	sts	0x5013, r21	; 0x805013 <result+0x1>
    429a:	e0 91 30 50 	lds	r30, 0x5030	; 0x805030 <ram+0x1c>
    429e:	f0 91 31 50 	lds	r31, 0x5031	; 0x805031 <ram+0x1d>
    42a2:	4f 01       	movw	r8, r30
    42a4:	0f 2e       	mov	r0, r31
    42a6:	00 0c       	add	r0, r0
    42a8:	aa 08       	sbc	r10, r10
    42aa:	bb 08       	sbc	r11, r11
    42ac:	24 01       	movw	r4, r8
    42ae:	35 01       	movw	r6, r10
    42b0:	4f ef       	ldi	r20, 0xFF	; 255
    42b2:	44 1a       	sub	r4, r20
    42b4:	4f e1       	ldi	r20, 0x1F	; 31
    42b6:	54 0a       	sbc	r5, r20
    42b8:	61 08       	sbc	r6, r1
    42ba:	71 08       	sbc	r7, r1
    42bc:	40 e5       	ldi	r20, 0x50	; 80
    42be:	50 e4       	ldi	r21, 0x40	; 64
    42c0:	60 e0       	ldi	r22, 0x00	; 0
    42c2:	70 e0       	ldi	r23, 0x00	; 0
    42c4:	48 19       	sub	r20, r8
    42c6:	59 09       	sbc	r21, r9
    42c8:	6a 09       	sbc	r22, r10
    42ca:	7b 09       	sbc	r23, r11
    42cc:	44 15       	cp	r20, r4
    42ce:	55 05       	cpc	r21, r5
    42d0:	66 05       	cpc	r22, r6
    42d2:	77 05       	cpc	r23, r7
    42d4:	0c f4       	brge	.+2      	; 0x42d8 <fetch+0x3d4a>
    42d6:	52 c2       	rjmp	.+1188   	; 0x477c <fetch+0x41ee>
    42d8:	80 83       	st	Z, r24
    42da:	c0 90 14 93 	lds	r12, 0x9314	; 0x809314 <totalcycles>
    42de:	d0 90 15 93 	lds	r13, 0x9315	; 0x809315 <totalcycles+0x1>
    42e2:	e0 90 16 93 	lds	r14, 0x9316	; 0x809316 <totalcycles+0x2>
    42e6:	f0 90 17 93 	lds	r15, 0x9317	; 0x809317 <totalcycles+0x3>
    42ea:	20 91 10 50 	lds	r18, 0x5010	; 0x805010 <PC>
    42ee:	30 91 11 50 	lds	r19, 0x5011	; 0x805011 <PC+0x1>
    42f2:	80 91 30 50 	lds	r24, 0x5030	; 0x805030 <ram+0x1c>
    42f6:	8f 3f       	cpi	r24, 0xFF	; 255
    42f8:	09 f4       	brne	.+2      	; 0x42fc <fetch+0x3d6e>
    42fa:	17 c5       	rjmp	.+2606   	; 0x4d2a <fetch+0x479c>
    42fc:	8f 5f       	subi	r24, 0xFF	; 255
    42fe:	80 93 30 50 	sts	0x5030, r24	; 0x805030 <ram+0x1c>
    4302:	2e 5f       	subi	r18, 0xFE	; 254
    4304:	3f 4f       	sbci	r19, 0xFF	; 255
    4306:	20 93 10 50 	sts	0x5010, r18	; 0x805010 <PC>
    430a:	30 93 11 50 	sts	0x5011, r19	; 0x805011 <PC+0x1>
    430e:	5f ef       	ldi	r21, 0xFF	; 255
    4310:	c5 1a       	sub	r12, r21
    4312:	d5 0a       	sbc	r13, r21
    4314:	e5 0a       	sbc	r14, r21
    4316:	f5 0a       	sbc	r15, r21
    4318:	28 ca       	rjmp	.-2992   	; 0x376a <fetch+0x31dc>
    431a:	91 70       	andi	r25, 0x01	; 1
    431c:	a8 96       	adiw	r28, 0x28	; 40
    431e:	9f af       	std	Y+63, r25	; 0x3f
    4320:	a8 97       	sbiw	r28, 0x28	; 40
    4322:	a9 96       	adiw	r28, 0x29	; 41
    4324:	1f ae       	std	Y+63, r1	; 0x3f
    4326:	a9 97       	sbiw	r28, 0x29	; 41
    4328:	a9 96       	adiw	r28, 0x29	; 41
    432a:	4e ad       	ldd	r20, Y+62	; 0x3e
    432c:	5f ad       	ldd	r21, Y+63	; 0x3f
    432e:	a9 97       	sbiw	r28, 0x29	; 41
    4330:	42 95       	swap	r20
    4332:	52 95       	swap	r21
    4334:	50 7f       	andi	r21, 0xF0	; 240
    4336:	54 27       	eor	r21, r20
    4338:	40 7f       	andi	r20, 0xF0	; 240
    433a:	54 27       	eor	r21, r20
    433c:	82 95       	swap	r24
    433e:	8f 70       	andi	r24, 0x0F	; 15
    4340:	48 2b       	or	r20, r24
    4342:	40 93 12 50 	sts	0x5012, r20	; 0x805012 <result>
    4346:	50 93 13 50 	sts	0x5013, r21	; 0x805013 <result+0x1>
    434a:	60 91 32 50 	lds	r22, 0x5032	; 0x805032 <ram+0x1e>
    434e:	70 91 33 50 	lds	r23, 0x5033	; 0x805033 <ram+0x1f>
    4352:	cb 01       	movw	r24, r22
    4354:	8e 7f       	andi	r24, 0xFE	; 254
    4356:	09 2e       	mov	r0, r25
    4358:	00 0c       	add	r0, r0
    435a:	aa 0b       	sbc	r26, r26
    435c:	bb 0b       	sbc	r27, r27
    435e:	c0 90 00 20 	lds	r12, 0x2000	; 0x802000 <__DATA_REGION_ORIGIN__>
    4362:	d0 90 01 20 	lds	r13, 0x2001	; 0x802001 <__DATA_REGION_ORIGIN__+0x1>
    4366:	e0 90 02 20 	lds	r14, 0x2002	; 0x802002 <__DATA_REGION_ORIGIN__+0x2>
    436a:	f0 90 03 20 	lds	r15, 0x2003	; 0x802003 <__DATA_REGION_ORIGIN__+0x3>
    436e:	8c 0d       	add	r24, r12
    4370:	9d 1d       	adc	r25, r13
    4372:	ae 1d       	adc	r26, r14
    4374:	bf 1d       	adc	r27, r15
    4376:	61 70       	andi	r22, 0x01	; 1
    4378:	77 27       	eor	r23, r23
    437a:	e1 e0       	ldi	r30, 0x01	; 1
    437c:	6e 27       	eor	r22, r30
    437e:	86 0f       	add	r24, r22
    4380:	97 1f       	adc	r25, r23
    4382:	a1 1d       	adc	r26, r1
    4384:	b1 1d       	adc	r27, r1
    4386:	2c 01       	movw	r4, r24
    4388:	3d 01       	movw	r6, r26
    438a:	ff ef       	ldi	r31, 0xFF	; 255
    438c:	4f 1a       	sub	r4, r31
    438e:	ff e1       	ldi	r31, 0x1F	; 31
    4390:	5f 0a       	sbc	r5, r31
    4392:	61 08       	sbc	r6, r1
    4394:	71 08       	sbc	r7, r1
    4396:	60 e5       	ldi	r22, 0x50	; 80
    4398:	c6 2e       	mov	r12, r22
    439a:	60 e4       	ldi	r22, 0x40	; 64
    439c:	d6 2e       	mov	r13, r22
    439e:	e1 2c       	mov	r14, r1
    43a0:	f1 2c       	mov	r15, r1
    43a2:	c8 1a       	sub	r12, r24
    43a4:	d9 0a       	sbc	r13, r25
    43a6:	ea 0a       	sbc	r14, r26
    43a8:	fb 0a       	sbc	r15, r27
    43aa:	fc 01       	movw	r30, r24
    43ac:	c4 14       	cp	r12, r4
    43ae:	d5 04       	cpc	r13, r5
    43b0:	e6 04       	cpc	r14, r6
    43b2:	f7 04       	cpc	r15, r7
    43b4:	14 f4       	brge	.+4      	; 0x43ba <fetch+0x3e2c>
    43b6:	ec 5e       	subi	r30, 0xEC	; 236
    43b8:	ff 4a       	sbci	r31, 0xAF	; 175
    43ba:	80 81       	ld	r24, Z
    43bc:	fa 01       	movw	r30, r20
    43be:	ec 5e       	subi	r30, 0xEC	; 236
    43c0:	ff 4a       	sbci	r31, 0xAF	; 175
    43c2:	80 83       	st	Z, r24
    43c4:	2e 5f       	subi	r18, 0xFE	; 254
    43c6:	3f 4f       	sbci	r19, 0xFF	; 255
    43c8:	20 93 10 50 	sts	0x5010, r18	; 0x805010 <PC>
    43cc:	30 93 11 50 	sts	0x5011, r19	; 0x805011 <PC+0x1>
    43d0:	03 e0       	ldi	r16, 0x03	; 3
    43d2:	80 0e       	add	r8, r16
    43d4:	91 1c       	adc	r9, r1
    43d6:	a1 1c       	adc	r10, r1
    43d8:	b1 1c       	adc	r11, r1
    43da:	80 92 14 93 	sts	0x9314, r8	; 0x809314 <totalcycles>
    43de:	90 92 15 93 	sts	0x9315, r9	; 0x809315 <totalcycles+0x1>
    43e2:	a0 92 16 93 	sts	0x9316, r10	; 0x809316 <totalcycles+0x2>
    43e6:	b0 92 17 93 	sts	0x9317, r11	; 0x809317 <totalcycles+0x3>
    43ea:	e2 e0       	ldi	r30, 0x02	; 2
    43ec:	92 e0       	ldi	r25, 0x02	; 2
    43ee:	0c 94 b2 03 	jmp	0x764	; 0x764 <fetch+0x1d6>
    43f2:	80 91 32 50 	lds	r24, 0x5032	; 0x805032 <ram+0x1e>
    43f6:	90 91 33 50 	lds	r25, 0x5033	; 0x805033 <ram+0x1f>
    43fa:	9c 01       	movw	r18, r24
    43fc:	22 0f       	add	r18, r18
    43fe:	33 1f       	adc	r19, r19
    4400:	80 91 00 20 	lds	r24, 0x2000	; 0x802000 <__DATA_REGION_ORIGIN__>
    4404:	90 91 01 20 	lds	r25, 0x2001	; 0x802001 <__DATA_REGION_ORIGIN__+0x1>
    4408:	82 0f       	add	r24, r18
    440a:	93 1f       	adc	r25, r19
    440c:	80 93 12 50 	sts	0x5012, r24	; 0x805012 <result>
    4410:	90 93 13 50 	sts	0x5013, r25	; 0x805013 <result+0x1>
    4414:	80 93 10 50 	sts	0x5010, r24	; 0x805010 <PC>
    4418:	90 93 11 50 	sts	0x5011, r25	; 0x805011 <PC+0x1>
    441c:	22 e0       	ldi	r18, 0x02	; 2
    441e:	82 0e       	add	r8, r18
    4420:	91 1c       	adc	r9, r1
    4422:	a1 1c       	adc	r10, r1
    4424:	b1 1c       	adc	r11, r1
    4426:	80 92 14 93 	sts	0x9314, r8	; 0x809314 <totalcycles>
    442a:	90 92 15 93 	sts	0x9315, r9	; 0x809315 <totalcycles+0x1>
    442e:	a0 92 16 93 	sts	0x9316, r10	; 0x809316 <totalcycles+0x2>
    4432:	b0 92 17 93 	sts	0x9317, r11	; 0x809317 <totalcycles+0x3>
    4436:	e2 e0       	ldi	r30, 0x02	; 2
    4438:	92 e0       	ldi	r25, 0x02	; 2
    443a:	0c 94 b2 03 	jmp	0x764	; 0x764 <fetch+0x1d6>
    443e:	80 91 0a 40 	lds	r24, 0x400A	; 0x80400a <newStatus>
    4442:	87 7c       	andi	r24, 0xC7	; 199
    4444:	88 60       	ori	r24, 0x08	; 8
    4446:	80 93 0a 40 	sts	0x400A, r24	; 0x80400a <newStatus>
    444a:	2e 5f       	subi	r18, 0xFE	; 254
    444c:	3f 4f       	sbci	r19, 0xFF	; 255
    444e:	20 93 10 50 	sts	0x5010, r18	; 0x805010 <PC>
    4452:	30 93 11 50 	sts	0x5011, r19	; 0x805011 <PC+0x1>
    4456:	e2 e0       	ldi	r30, 0x02	; 2
    4458:	92 e0       	ldi	r25, 0x02	; 2
    445a:	0c 94 b2 03 	jmp	0x764	; 0x764 <fetch+0x1d6>
    445e:	80 91 0a 40 	lds	r24, 0x400A	; 0x80400a <newStatus>
    4462:	88 7f       	andi	r24, 0xF8	; 248
    4464:	81 60       	ori	r24, 0x01	; 1
    4466:	ef cf       	rjmp	.-34     	; 0x4446 <fetch+0x3eb8>
    4468:	40 91 0f 50 	lds	r20, 0x500F	; 0x80500f <SREG_status+0x2>
    446c:	4c 71       	andi	r20, 0x1C	; 28
    446e:	11 f0       	breq	.+4      	; 0x4474 <fetch+0x3ee6>
    4470:	0c 94 de 04 	jmp	0x9bc	; 0x9bc <fetch+0x42e>
    4474:	93 70       	andi	r25, 0x03	; 3
    4476:	10 e2       	ldi	r17, 0x20	; 32
    4478:	91 9f       	mul	r25, r17
    447a:	a0 01       	movw	r20, r0
    447c:	11 24       	eor	r1, r1
    447e:	b9 ce       	rjmp	.-654    	; 0x41f2 <fetch+0x3c64>
    4480:	80 91 0a 40 	lds	r24, 0x400A	; 0x80400a <newStatus>
    4484:	87 7c       	andi	r24, 0xC7	; 199
    4486:	df cf       	rjmp	.-66     	; 0x4446 <fetch+0x3eb8>
    4488:	40 91 0e 50 	lds	r20, 0x500E	; 0x80500e <SREG_status+0x1>
    448c:	4e 70       	andi	r20, 0x0E	; 14
    448e:	11 f0       	breq	.+4      	; 0x4494 <fetch+0x3f06>
    4490:	0c 94 de 04 	jmp	0x9bc	; 0x9bc <fetch+0x42e>
    4494:	93 70       	andi	r25, 0x03	; 3
    4496:	a0 e2       	ldi	r26, 0x20	; 32
    4498:	9a 9f       	mul	r25, r26
    449a:	a0 01       	movw	r20, r0
    449c:	11 24       	eor	r1, r1
    449e:	86 95       	lsr	r24
    44a0:	86 95       	lsr	r24
    44a2:	86 95       	lsr	r24
    44a4:	fa 01       	movw	r30, r20
    44a6:	e8 2b       	or	r30, r24
    44a8:	cf 01       	movw	r24, r30
    44aa:	80 93 12 50 	sts	0x5012, r24	; 0x805012 <result>
    44ae:	90 93 13 50 	sts	0x5013, r25	; 0x805013 <result+0x1>
    44b2:	81 34       	cpi	r24, 0x41	; 65
    44b4:	91 05       	cpc	r25, r1
    44b6:	0c f4       	brge	.+2      	; 0x44ba <fetch+0x3f2c>
    44b8:	82 c4       	rjmp	.+2308   	; 0x4dbe <fetch+0x4830>
    44ba:	3a 95       	dec	r19
    44bc:	88 0f       	add	r24, r24
    44be:	99 1f       	adc	r25, r25
    44c0:	28 0f       	add	r18, r24
    44c2:	39 1f       	adc	r19, r25
    44c4:	f2 e0       	ldi	r31, 0x02	; 2
    44c6:	8f 0e       	add	r8, r31
    44c8:	91 1c       	adc	r9, r1
    44ca:	a1 1c       	adc	r10, r1
    44cc:	b1 1c       	adc	r11, r1
    44ce:	80 92 14 93 	sts	0x9314, r8	; 0x809314 <totalcycles>
    44d2:	90 92 15 93 	sts	0x9315, r9	; 0x809315 <totalcycles+0x1>
    44d6:	a0 92 16 93 	sts	0x9316, r10	; 0x809316 <totalcycles+0x2>
    44da:	b0 92 17 93 	sts	0x9317, r11	; 0x809317 <totalcycles+0x3>
    44de:	0c 94 de 04 	jmp	0x9bc	; 0x9bc <fetch+0x42e>
    44e2:	80 91 0a 40 	lds	r24, 0x400A	; 0x80400a <newStatus>
    44e6:	88 7f       	andi	r24, 0xF8	; 248
    44e8:	ae cf       	rjmp	.-164    	; 0x4446 <fetch+0x3eb8>
    44ea:	41 50       	subi	r20, 0x01	; 1
    44ec:	40 93 32 50 	sts	0x5032, r20	; 0x805032 <ram+0x1e>
    44f0:	9a cd       	rjmp	.-1228   	; 0x4026 <fetch+0x3a98>
    44f2:	40 91 30 50 	lds	r20, 0x5030	; 0x805030 <ram+0x1c>
    44f6:	41 11       	cpse	r20, r1
    44f8:	6e c2       	rjmp	.+1244   	; 0x49d6 <fetch+0x4448>
    44fa:	40 91 31 50 	lds	r20, 0x5031	; 0x805031 <ram+0x1d>
    44fe:	41 50       	subi	r20, 0x01	; 1
    4500:	40 93 31 50 	sts	0x5031, r20	; 0x805031 <ram+0x1d>
    4504:	4f ef       	ldi	r20, 0xFF	; 255
    4506:	40 93 30 50 	sts	0x5030, r20	; 0x805030 <ram+0x1c>
    450a:	91 70       	andi	r25, 0x01	; 1
    450c:	ec 96       	adiw	r28, 0x3c	; 60
    450e:	9f af       	std	Y+63, r25	; 0x3f
    4510:	ec 97       	sbiw	r28, 0x3c	; 60
    4512:	ed 96       	adiw	r28, 0x3d	; 61
    4514:	1f ae       	std	Y+63, r1	; 0x3f
    4516:	ed 97       	sbiw	r28, 0x3d	; 61
    4518:	ed 96       	adiw	r28, 0x3d	; 61
    451a:	ee ad       	ldd	r30, Y+62	; 0x3e
    451c:	ff ad       	ldd	r31, Y+63	; 0x3f
    451e:	ed 97       	sbiw	r28, 0x3d	; 61
    4520:	e2 95       	swap	r30
    4522:	f2 95       	swap	r31
    4524:	f0 7f       	andi	r31, 0xF0	; 240
    4526:	fe 27       	eor	r31, r30
    4528:	e0 7f       	andi	r30, 0xF0	; 240
    452a:	fe 27       	eor	r31, r30
    452c:	98 2f       	mov	r25, r24
    452e:	92 95       	swap	r25
    4530:	9f 70       	andi	r25, 0x0F	; 15
    4532:	e9 2b       	or	r30, r25
    4534:	ec 5e       	subi	r30, 0xEC	; 236
    4536:	ff 4a       	sbci	r31, 0xAF	; 175
    4538:	90 81       	ld	r25, Z
    453a:	49 2f       	mov	r20, r25
    453c:	50 e0       	ldi	r21, 0x00	; 0
    453e:	40 93 12 50 	sts	0x5012, r20	; 0x805012 <result>
    4542:	50 93 13 50 	sts	0x5013, r21	; 0x805013 <result+0x1>
    4546:	87 70       	andi	r24, 0x07	; 7
    4548:	e0 91 30 50 	lds	r30, 0x5030	; 0x805030 <ram+0x1c>
    454c:	f0 91 31 50 	lds	r31, 0x5031	; 0x805031 <ram+0x1d>
    4550:	e8 0f       	add	r30, r24
    4552:	f1 1d       	adc	r31, r1
    4554:	4f 01       	movw	r8, r30
    4556:	0f 2e       	mov	r0, r31
    4558:	00 0c       	add	r0, r0
    455a:	aa 08       	sbc	r10, r10
    455c:	bb 08       	sbc	r11, r11
    455e:	24 01       	movw	r4, r8
    4560:	35 01       	movw	r6, r10
    4562:	6f ef       	ldi	r22, 0xFF	; 255
    4564:	46 1a       	sub	r4, r22
    4566:	6f e1       	ldi	r22, 0x1F	; 31
    4568:	56 0a       	sbc	r5, r22
    456a:	61 08       	sbc	r6, r1
    456c:	71 08       	sbc	r7, r1
    456e:	40 e5       	ldi	r20, 0x50	; 80
    4570:	50 e4       	ldi	r21, 0x40	; 64
    4572:	60 e0       	ldi	r22, 0x00	; 0
    4574:	70 e0       	ldi	r23, 0x00	; 0
    4576:	48 19       	sub	r20, r8
    4578:	59 09       	sbc	r21, r9
    457a:	6a 09       	sbc	r22, r10
    457c:	7b 09       	sbc	r23, r11
    457e:	44 15       	cp	r20, r4
    4580:	55 05       	cpc	r21, r5
    4582:	66 05       	cpc	r22, r6
    4584:	77 05       	cpc	r23, r7
    4586:	0c f4       	brge	.+2      	; 0x458a <fetch+0x3ffc>
    4588:	c6 c1       	rjmp	.+908    	; 0x4916 <fetch+0x4388>
    458a:	90 83       	st	Z, r25
    458c:	c0 90 14 93 	lds	r12, 0x9314	; 0x809314 <totalcycles>
    4590:	d0 90 15 93 	lds	r13, 0x9315	; 0x809315 <totalcycles+0x1>
    4594:	e0 90 16 93 	lds	r14, 0x9316	; 0x809316 <totalcycles+0x2>
    4598:	f0 90 17 93 	lds	r15, 0x9317	; 0x809317 <totalcycles+0x3>
    459c:	20 91 10 50 	lds	r18, 0x5010	; 0x805010 <PC>
    45a0:	30 91 11 50 	lds	r19, 0x5011	; 0x805011 <PC+0x1>
    45a4:	2e 5f       	subi	r18, 0xFE	; 254
    45a6:	3f 4f       	sbci	r19, 0xFF	; 255
    45a8:	20 93 10 50 	sts	0x5010, r18	; 0x805010 <PC>
    45ac:	30 93 11 50 	sts	0x5011, r19	; 0x805011 <PC+0x1>
    45b0:	7f ef       	ldi	r23, 0xFF	; 255
    45b2:	c7 1a       	sub	r12, r23
    45b4:	d7 0a       	sbc	r13, r23
    45b6:	e7 0a       	sbc	r14, r23
    45b8:	f7 0a       	sbc	r15, r23
    45ba:	d7 c8       	rjmp	.-3666   	; 0x376a <fetch+0x31dc>
    45bc:	91 70       	andi	r25, 0x01	; 1
    45be:	aa 96       	adiw	r28, 0x2a	; 42
    45c0:	9f af       	std	Y+63, r25	; 0x3f
    45c2:	aa 97       	sbiw	r28, 0x2a	; 42
    45c4:	ab 96       	adiw	r28, 0x2b	; 43
    45c6:	1f ae       	std	Y+63, r1	; 0x3f
    45c8:	ab 97       	sbiw	r28, 0x2b	; 43
    45ca:	ab 96       	adiw	r28, 0x2b	; 43
    45cc:	4e ad       	ldd	r20, Y+62	; 0x3e
    45ce:	5f ad       	ldd	r21, Y+63	; 0x3f
    45d0:	ab 97       	sbiw	r28, 0x2b	; 43
    45d2:	42 95       	swap	r20
    45d4:	52 95       	swap	r21
    45d6:	50 7f       	andi	r21, 0xF0	; 240
    45d8:	54 27       	eor	r21, r20
    45da:	40 7f       	andi	r20, 0xF0	; 240
    45dc:	54 27       	eor	r21, r20
    45de:	82 95       	swap	r24
    45e0:	8f 70       	andi	r24, 0x0F	; 15
    45e2:	48 2b       	or	r20, r24
    45e4:	40 93 12 50 	sts	0x5012, r20	; 0x805012 <result>
    45e8:	50 93 13 50 	sts	0x5013, r21	; 0x805013 <result+0x1>
    45ec:	60 91 32 50 	lds	r22, 0x5032	; 0x805032 <ram+0x1e>
    45f0:	70 91 33 50 	lds	r23, 0x5033	; 0x805033 <ram+0x1f>
    45f4:	cb 01       	movw	r24, r22
    45f6:	8e 7f       	andi	r24, 0xFE	; 254
    45f8:	09 2e       	mov	r0, r25
    45fa:	00 0c       	add	r0, r0
    45fc:	aa 0b       	sbc	r26, r26
    45fe:	bb 0b       	sbc	r27, r27
    4600:	c0 90 00 20 	lds	r12, 0x2000	; 0x802000 <__DATA_REGION_ORIGIN__>
    4604:	d0 90 01 20 	lds	r13, 0x2001	; 0x802001 <__DATA_REGION_ORIGIN__+0x1>
    4608:	e0 90 02 20 	lds	r14, 0x2002	; 0x802002 <__DATA_REGION_ORIGIN__+0x2>
    460c:	f0 90 03 20 	lds	r15, 0x2003	; 0x802003 <__DATA_REGION_ORIGIN__+0x3>
    4610:	8c 0d       	add	r24, r12
    4612:	9d 1d       	adc	r25, r13
    4614:	ae 1d       	adc	r26, r14
    4616:	bf 1d       	adc	r27, r15
    4618:	61 70       	andi	r22, 0x01	; 1
    461a:	77 27       	eor	r23, r23
    461c:	11 e0       	ldi	r17, 0x01	; 1
    461e:	61 27       	eor	r22, r17
    4620:	86 0f       	add	r24, r22
    4622:	97 1f       	adc	r25, r23
    4624:	a1 1d       	adc	r26, r1
    4626:	b1 1d       	adc	r27, r1
    4628:	2c 01       	movw	r4, r24
    462a:	3d 01       	movw	r6, r26
    462c:	6f ef       	ldi	r22, 0xFF	; 255
    462e:	46 1a       	sub	r4, r22
    4630:	6f e1       	ldi	r22, 0x1F	; 31
    4632:	56 0a       	sbc	r5, r22
    4634:	61 08       	sbc	r6, r1
    4636:	71 08       	sbc	r7, r1
    4638:	10 e5       	ldi	r17, 0x50	; 80
    463a:	c1 2e       	mov	r12, r17
    463c:	10 e4       	ldi	r17, 0x40	; 64
    463e:	d1 2e       	mov	r13, r17
    4640:	e1 2c       	mov	r14, r1
    4642:	f1 2c       	mov	r15, r1
    4644:	c8 1a       	sub	r12, r24
    4646:	d9 0a       	sbc	r13, r25
    4648:	ea 0a       	sbc	r14, r26
    464a:	fb 0a       	sbc	r15, r27
    464c:	fc 01       	movw	r30, r24
    464e:	c4 14       	cp	r12, r4
    4650:	d5 04       	cpc	r13, r5
    4652:	e6 04       	cpc	r14, r6
    4654:	f7 04       	cpc	r15, r7
    4656:	14 f4       	brge	.+4      	; 0x465c <fetch+0x40ce>
    4658:	ec 5e       	subi	r30, 0xEC	; 236
    465a:	ff 4a       	sbci	r31, 0xAF	; 175
    465c:	80 81       	ld	r24, Z
    465e:	fa 01       	movw	r30, r20
    4660:	ec 5e       	subi	r30, 0xEC	; 236
    4662:	ff 4a       	sbci	r31, 0xAF	; 175
    4664:	80 83       	st	Z, r24
    4666:	80 91 32 50 	lds	r24, 0x5032	; 0x805032 <ram+0x1e>
    466a:	8f 3f       	cpi	r24, 0xFF	; 255
    466c:	09 f4       	brne	.+2      	; 0x4670 <fetch+0x40e2>
    466e:	ac c3       	rjmp	.+1880   	; 0x4dc8 <fetch+0x483a>
    4670:	8f 5f       	subi	r24, 0xFF	; 255
    4672:	80 93 32 50 	sts	0x5032, r24	; 0x805032 <ram+0x1e>
    4676:	2e 5f       	subi	r18, 0xFE	; 254
    4678:	3f 4f       	sbci	r19, 0xFF	; 255
    467a:	20 93 10 50 	sts	0x5010, r18	; 0x805010 <PC>
    467e:	30 93 11 50 	sts	0x5011, r19	; 0x805011 <PC+0x1>
    4682:	73 e0       	ldi	r23, 0x03	; 3
    4684:	87 0e       	add	r8, r23
    4686:	91 1c       	adc	r9, r1
    4688:	a1 1c       	adc	r10, r1
    468a:	b1 1c       	adc	r11, r1
    468c:	80 92 14 93 	sts	0x9314, r8	; 0x809314 <totalcycles>
    4690:	90 92 15 93 	sts	0x9315, r9	; 0x809315 <totalcycles+0x1>
    4694:	a0 92 16 93 	sts	0x9316, r10	; 0x809316 <totalcycles+0x2>
    4698:	b0 92 17 93 	sts	0x9317, r11	; 0x809317 <totalcycles+0x3>
    469c:	e2 e0       	ldi	r30, 0x02	; 2
    469e:	92 e0       	ldi	r25, 0x02	; 2
    46a0:	0c 94 b2 03 	jmp	0x764	; 0x764 <fetch+0x1d6>
    46a4:	ec 5e       	subi	r30, 0xEC	; 236
    46a6:	ff 4a       	sbci	r31, 0xAF	; 175
    46a8:	20 83       	st	Z, r18
    46aa:	c9 56       	subi	r28, 0x69	; 105
    46ac:	df 4f       	sbci	r29, 0xFF	; 255
    46ae:	08 81       	ld	r16, Y
    46b0:	19 81       	ldd	r17, Y+1	; 0x01
    46b2:	c7 59       	subi	r28, 0x97	; 151
    46b4:	d0 40       	sbci	r29, 0x00	; 0
    46b6:	67 cd       	rjmp	.-1330   	; 0x4186 <fetch+0x3bf8>
    46b8:	91 50       	subi	r25, 0x01	; 1
    46ba:	90 93 32 50 	sts	0x5032, r25	; 0x805032 <ram+0x1e>
    46be:	33 cd       	rjmp	.-1434   	; 0x4126 <fetch+0x3b98>
    46c0:	91 70       	andi	r25, 0x01	; 1
    46c2:	ac 96       	adiw	r28, 0x2c	; 44
    46c4:	9f af       	std	Y+63, r25	; 0x3f
    46c6:	ac 97       	sbiw	r28, 0x2c	; 44
    46c8:	ad 96       	adiw	r28, 0x2d	; 45
    46ca:	1f ae       	std	Y+63, r1	; 0x3f
    46cc:	ad 97       	sbiw	r28, 0x2d	; 45
    46ce:	ad 96       	adiw	r28, 0x2d	; 45
    46d0:	4e ad       	ldd	r20, Y+62	; 0x3e
    46d2:	5f ad       	ldd	r21, Y+63	; 0x3f
    46d4:	ad 97       	sbiw	r28, 0x2d	; 45
    46d6:	42 95       	swap	r20
    46d8:	52 95       	swap	r21
    46da:	50 7f       	andi	r21, 0xF0	; 240
    46dc:	54 27       	eor	r21, r20
    46de:	40 7f       	andi	r20, 0xF0	; 240
    46e0:	54 27       	eor	r21, r20
    46e2:	82 95       	swap	r24
    46e4:	8f 70       	andi	r24, 0x0F	; 15
    46e6:	48 2b       	or	r20, r24
    46e8:	40 93 12 50 	sts	0x5012, r20	; 0x805012 <result>
    46ec:	50 93 13 50 	sts	0x5013, r21	; 0x805013 <result+0x1>
    46f0:	60 91 32 50 	lds	r22, 0x5032	; 0x805032 <ram+0x1e>
    46f4:	70 91 33 50 	lds	r23, 0x5033	; 0x805033 <ram+0x1f>
    46f8:	cb 01       	movw	r24, r22
    46fa:	8e 7f       	andi	r24, 0xFE	; 254
    46fc:	09 2e       	mov	r0, r25
    46fe:	00 0c       	add	r0, r0
    4700:	aa 0b       	sbc	r26, r26
    4702:	bb 0b       	sbc	r27, r27
    4704:	c0 90 00 20 	lds	r12, 0x2000	; 0x802000 <__DATA_REGION_ORIGIN__>
    4708:	d0 90 01 20 	lds	r13, 0x2001	; 0x802001 <__DATA_REGION_ORIGIN__+0x1>
    470c:	e0 90 02 20 	lds	r14, 0x2002	; 0x802002 <__DATA_REGION_ORIGIN__+0x2>
    4710:	f0 90 03 20 	lds	r15, 0x2003	; 0x802003 <__DATA_REGION_ORIGIN__+0x3>
    4714:	8c 0d       	add	r24, r12
    4716:	9d 1d       	adc	r25, r13
    4718:	ae 1d       	adc	r26, r14
    471a:	bf 1d       	adc	r27, r15
    471c:	61 70       	andi	r22, 0x01	; 1
    471e:	77 27       	eor	r23, r23
    4720:	e1 e0       	ldi	r30, 0x01	; 1
    4722:	6e 27       	eor	r22, r30
    4724:	86 0f       	add	r24, r22
    4726:	97 1f       	adc	r25, r23
    4728:	a1 1d       	adc	r26, r1
    472a:	b1 1d       	adc	r27, r1
    472c:	2c 01       	movw	r4, r24
    472e:	3d 01       	movw	r6, r26
    4730:	ff ef       	ldi	r31, 0xFF	; 255
    4732:	4f 1a       	sub	r4, r31
    4734:	ff e1       	ldi	r31, 0x1F	; 31
    4736:	5f 0a       	sbc	r5, r31
    4738:	61 08       	sbc	r6, r1
    473a:	71 08       	sbc	r7, r1
    473c:	e0 e5       	ldi	r30, 0x50	; 80
    473e:	ce 2e       	mov	r12, r30
    4740:	e0 e4       	ldi	r30, 0x40	; 64
    4742:	de 2e       	mov	r13, r30
    4744:	e1 2c       	mov	r14, r1
    4746:	f1 2c       	mov	r15, r1
    4748:	c8 1a       	sub	r12, r24
    474a:	d9 0a       	sbc	r13, r25
    474c:	ea 0a       	sbc	r14, r26
    474e:	fb 0a       	sbc	r15, r27
    4750:	fc 01       	movw	r30, r24
    4752:	c4 14       	cp	r12, r4
    4754:	d5 04       	cpc	r13, r5
    4756:	e6 04       	cpc	r14, r6
    4758:	f7 04       	cpc	r15, r7
    475a:	14 f4       	brge	.+4      	; 0x4760 <fetch+0x41d2>
    475c:	ec 5e       	subi	r30, 0xEC	; 236
    475e:	ff 4a       	sbci	r31, 0xAF	; 175
    4760:	80 81       	ld	r24, Z
    4762:	fa 01       	movw	r30, r20
    4764:	ec 5e       	subi	r30, 0xEC	; 236
    4766:	ff 4a       	sbci	r31, 0xAF	; 175
    4768:	80 83       	st	Z, r24
    476a:	80 91 32 50 	lds	r24, 0x5032	; 0x805032 <ram+0x1e>
    476e:	8f 3f       	cpi	r24, 0xFF	; 255
    4770:	09 f4       	brne	.+2      	; 0x4774 <fetch+0x41e6>
    4772:	36 c3       	rjmp	.+1644   	; 0x4de0 <fetch+0x4852>
    4774:	8f 5f       	subi	r24, 0xFF	; 255
    4776:	80 93 32 50 	sts	0x5032, r24	; 0x805032 <ram+0x1e>
    477a:	24 ce       	rjmp	.-952    	; 0x43c4 <fetch+0x3e36>
    477c:	ec 5e       	subi	r30, 0xEC	; 236
    477e:	ff 4a       	sbci	r31, 0xAF	; 175
    4780:	80 83       	st	Z, r24
    4782:	b7 cd       	rjmp	.-1170   	; 0x42f2 <fetch+0x3d64>
    4784:	80 91 33 50 	lds	r24, 0x5033	; 0x805033 <ram+0x1f>
    4788:	8f 5f       	subi	r24, 0xFF	; 255
    478a:	80 93 33 50 	sts	0x5033, r24	; 0x805033 <ram+0x1f>
    478e:	10 92 32 50 	sts	0x5032, r1	; 0x805032 <ram+0x1e>
    4792:	53 cb       	rjmp	.-2394   	; 0x3e3a <fetch+0x38ac>
    4794:	80 91 33 50 	lds	r24, 0x5033	; 0x805033 <ram+0x1f>
    4798:	8f 5f       	subi	r24, 0xFF	; 255
    479a:	80 93 33 50 	sts	0x5033, r24	; 0x805033 <ram+0x1f>
    479e:	10 92 32 50 	sts	0x5032, r1	; 0x805032 <ram+0x1e>
    47a2:	b5 cb       	rjmp	.-2198   	; 0x3f0e <fetch+0x3980>
    47a4:	91 70       	andi	r25, 0x01	; 1
    47a6:	ee 96       	adiw	r28, 0x3e	; 62
    47a8:	9f af       	std	Y+63, r25	; 0x3f
    47aa:	ee 97       	sbiw	r28, 0x3e	; 62
    47ac:	ef 96       	adiw	r28, 0x3f	; 63
    47ae:	1f ae       	std	Y+63, r1	; 0x3f
    47b0:	ef 97       	sbiw	r28, 0x3f	; 63
    47b2:	ef 96       	adiw	r28, 0x3f	; 63
    47b4:	ee ad       	ldd	r30, Y+62	; 0x3e
    47b6:	ff ad       	ldd	r31, Y+63	; 0x3f
    47b8:	ef 97       	sbiw	r28, 0x3f	; 63
    47ba:	e2 95       	swap	r30
    47bc:	f2 95       	swap	r31
    47be:	f0 7f       	andi	r31, 0xF0	; 240
    47c0:	fe 27       	eor	r31, r30
    47c2:	e0 7f       	andi	r30, 0xF0	; 240
    47c4:	fe 27       	eor	r31, r30
    47c6:	82 95       	swap	r24
    47c8:	8f 70       	andi	r24, 0x0F	; 15
    47ca:	e8 2b       	or	r30, r24
    47cc:	ec 5e       	subi	r30, 0xEC	; 236
    47ce:	ff 4a       	sbci	r31, 0xAF	; 175
    47d0:	80 81       	ld	r24, Z
    47d2:	e0 91 71 50 	lds	r30, 0x5071	; 0x805071 <ram+0x5d>
    47d6:	f0 91 72 50 	lds	r31, 0x5072	; 0x805072 <ram+0x5e>
    47da:	ec 5e       	subi	r30, 0xEC	; 236
    47dc:	ff 4a       	sbci	r31, 0xAF	; 175
    47de:	80 83       	st	Z, r24
    47e0:	80 91 71 50 	lds	r24, 0x5071	; 0x805071 <ram+0x5d>
    47e4:	90 91 72 50 	lds	r25, 0x5072	; 0x805072 <ram+0x5e>
    47e8:	09 2e       	mov	r0, r25
    47ea:	00 0c       	add	r0, r0
    47ec:	aa 0b       	sbc	r26, r26
    47ee:	bb 0b       	sbc	r27, r27
    47f0:	01 97       	sbiw	r24, 0x01	; 1
    47f2:	a1 09       	sbc	r26, r1
    47f4:	b1 09       	sbc	r27, r1
    47f6:	90 93 72 50 	sts	0x5072, r25	; 0x805072 <ram+0x5e>
    47fa:	80 93 71 50 	sts	0x5071, r24	; 0x805071 <ram+0x5d>
    47fe:	2e 5f       	subi	r18, 0xFE	; 254
    4800:	3f 4f       	sbci	r19, 0xFF	; 255
    4802:	20 93 10 50 	sts	0x5010, r18	; 0x805010 <PC>
    4806:	30 93 11 50 	sts	0x5011, r19	; 0x805011 <PC+0x1>
    480a:	82 e0       	ldi	r24, 0x02	; 2
    480c:	88 0e       	add	r8, r24
    480e:	91 1c       	adc	r9, r1
    4810:	a1 1c       	adc	r10, r1
    4812:	b1 1c       	adc	r11, r1
    4814:	80 92 14 93 	sts	0x9314, r8	; 0x809314 <totalcycles>
    4818:	90 92 15 93 	sts	0x9315, r9	; 0x809315 <totalcycles+0x1>
    481c:	a0 92 16 93 	sts	0x9316, r10	; 0x809316 <totalcycles+0x2>
    4820:	b0 92 17 93 	sts	0x9317, r11	; 0x809317 <totalcycles+0x3>
    4824:	e2 e0       	ldi	r30, 0x02	; 2
    4826:	92 e0       	ldi	r25, 0x02	; 2
    4828:	0c 94 b2 03 	jmp	0x764	; 0x764 <fetch+0x1d6>
    482c:	f1 2c       	mov	r15, r1
    482e:	5a c9       	rjmp	.-3404   	; 0x3ae4 <fetch+0x3556>
    4830:	19 82       	std	Y+1, r1	; 0x01
    4832:	83 c9       	rjmp	.-3322   	; 0x3b3a <fetch+0x35ac>
    4834:	b0 e0       	ldi	r27, 0x00	; 0
    4836:	44 c9       	rjmp	.-3448   	; 0x3ac0 <fetch+0x3532>
    4838:	0f 2f       	mov	r16, r31
    483a:	10 e0       	ldi	r17, 0x00	; 0
    483c:	b8 01       	movw	r22, r16
    483e:	64 0f       	add	r22, r20
    4840:	75 1f       	adc	r23, r21
    4842:	66 0f       	add	r22, r22
    4844:	67 2f       	mov	r22, r23
    4846:	66 1f       	adc	r22, r22
    4848:	77 0b       	sbc	r23, r23
    484a:	71 95       	neg	r23
    484c:	86 2f       	mov	r24, r22
    484e:	81 70       	andi	r24, 0x01	; 1
    4850:	68 01       	movw	r12, r16
    4852:	0c 94 e4 11 	jmp	0x23c8	; 0x23c8 <fetch+0x1e3a>
    4856:	70 e0       	ldi	r23, 0x00	; 0
    4858:	92 c9       	rjmp	.-3292   	; 0x3b7e <fetch+0x35f0>
    485a:	19 82       	std	Y+1, r1	; 0x01
    485c:	59 c9       	rjmp	.-3406   	; 0x3b10 <fetch+0x3582>
    485e:	88 0f       	add	r24, r24
    4860:	99 1f       	adc	r25, r25
    4862:	79 01       	movw	r14, r18
    4864:	e8 0e       	add	r14, r24
    4866:	f9 1e       	adc	r15, r25
    4868:	c9 56       	subi	r28, 0x69	; 105
    486a:	df 4f       	sbci	r29, 0xFF	; 255
    486c:	e8 82       	st	Y, r14
    486e:	f9 82       	std	Y+1, r15	; 0x01
    4870:	c7 59       	subi	r28, 0x97	; 151
    4872:	d0 40       	sbci	r29, 0x00	; 0
    4874:	0c 94 46 05 	jmp	0xa8c	; 0xa8c <fetch+0x4fe>
    4878:	60 e0       	ldi	r22, 0x00	; 0
    487a:	92 c9       	rjmp	.-3292   	; 0x3ba0 <fetch+0x3612>
    487c:	88 0f       	add	r24, r24
    487e:	99 1f       	adc	r25, r25
    4880:	28 0f       	add	r18, r24
    4882:	39 1f       	adc	r19, r25
    4884:	c9 cc       	rjmp	.-1646   	; 0x4218 <fetch+0x3c8a>
    4886:	91 70       	andi	r25, 0x01	; 1
    4888:	ae 96       	adiw	r28, 0x2e	; 46
    488a:	9f af       	std	Y+63, r25	; 0x3f
    488c:	ae 97       	sbiw	r28, 0x2e	; 46
    488e:	af 96       	adiw	r28, 0x2f	; 47
    4890:	1f ae       	std	Y+63, r1	; 0x3f
    4892:	af 97       	sbiw	r28, 0x2f	; 47
    4894:	af 96       	adiw	r28, 0x2f	; 47
    4896:	4e ad       	ldd	r20, Y+62	; 0x3e
    4898:	5f ad       	ldd	r21, Y+63	; 0x3f
    489a:	af 97       	sbiw	r28, 0x2f	; 47
    489c:	42 95       	swap	r20
    489e:	52 95       	swap	r21
    48a0:	50 7f       	andi	r21, 0xF0	; 240
    48a2:	54 27       	eor	r21, r20
    48a4:	40 7f       	andi	r20, 0xF0	; 240
    48a6:	54 27       	eor	r21, r20
    48a8:	82 95       	swap	r24
    48aa:	8f 70       	andi	r24, 0x0F	; 15
    48ac:	ba 01       	movw	r22, r20
    48ae:	68 2b       	or	r22, r24
    48b0:	cb 01       	movw	r24, r22
    48b2:	80 93 12 50 	sts	0x5012, r24	; 0x805012 <result>
    48b6:	90 93 13 50 	sts	0x5013, r25	; 0x805013 <result+0x1>
    48ba:	e0 91 30 50 	lds	r30, 0x5030	; 0x805030 <ram+0x1c>
    48be:	f0 91 31 50 	lds	r31, 0x5031	; 0x805031 <ram+0x1d>
    48c2:	6f 01       	movw	r12, r30
    48c4:	0f 2e       	mov	r0, r31
    48c6:	00 0c       	add	r0, r0
    48c8:	ee 08       	sbc	r14, r14
    48ca:	ff 08       	sbc	r15, r15
    48cc:	26 01       	movw	r4, r12
    48ce:	37 01       	movw	r6, r14
    48d0:	7f ef       	ldi	r23, 0xFF	; 255
    48d2:	47 1a       	sub	r4, r23
    48d4:	7f e1       	ldi	r23, 0x1F	; 31
    48d6:	57 0a       	sbc	r5, r23
    48d8:	61 08       	sbc	r6, r1
    48da:	71 08       	sbc	r7, r1
    48dc:	40 e5       	ldi	r20, 0x50	; 80
    48de:	50 e4       	ldi	r21, 0x40	; 64
    48e0:	60 e0       	ldi	r22, 0x00	; 0
    48e2:	70 e0       	ldi	r23, 0x00	; 0
    48e4:	4c 19       	sub	r20, r12
    48e6:	5d 09       	sbc	r21, r13
    48e8:	6e 09       	sbc	r22, r14
    48ea:	7f 09       	sbc	r23, r15
    48ec:	44 15       	cp	r20, r4
    48ee:	55 05       	cpc	r21, r5
    48f0:	66 05       	cpc	r22, r6
    48f2:	77 05       	cpc	r23, r7
    48f4:	14 f4       	brge	.+4      	; 0x48fa <fetch+0x436c>
    48f6:	ec 5e       	subi	r30, 0xEC	; 236
    48f8:	ff 4a       	sbci	r31, 0xAF	; 175
    48fa:	40 81       	ld	r20, Z
    48fc:	fc 01       	movw	r30, r24
    48fe:	ec 5e       	subi	r30, 0xEC	; 236
    4900:	ff 4a       	sbci	r31, 0xAF	; 175
    4902:	40 83       	st	Z, r20
    4904:	80 91 30 50 	lds	r24, 0x5030	; 0x805030 <ram+0x1c>
    4908:	8f 3f       	cpi	r24, 0xFF	; 255
    490a:	09 f4       	brne	.+2      	; 0x490e <fetch+0x4380>
    490c:	71 c2       	rjmp	.+1250   	; 0x4df0 <fetch+0x4862>
    490e:	8f 5f       	subi	r24, 0xFF	; 255
    4910:	80 93 30 50 	sts	0x5030, r24	; 0x805030 <ram+0x1c>
    4914:	74 cf       	rjmp	.-280    	; 0x47fe <fetch+0x4270>
    4916:	ec 5e       	subi	r30, 0xEC	; 236
    4918:	ff 4a       	sbci	r31, 0xAF	; 175
    491a:	90 83       	st	Z, r25
    491c:	43 ce       	rjmp	.-890    	; 0x45a4 <fetch+0x4016>
    491e:	91 70       	andi	r25, 0x01	; 1
    4920:	c1 58       	subi	r28, 0x81	; 129
    4922:	df 4f       	sbci	r29, 0xFF	; 255
    4924:	98 83       	st	Y, r25
    4926:	cf 57       	subi	r28, 0x7F	; 127
    4928:	d0 40       	sbci	r29, 0x00	; 0
    492a:	c0 58       	subi	r28, 0x80	; 128
    492c:	df 4f       	sbci	r29, 0xFF	; 255
    492e:	18 82       	st	Y, r1
    4930:	c0 58       	subi	r28, 0x80	; 128
    4932:	d0 40       	sbci	r29, 0x00	; 0
    4934:	c1 58       	subi	r28, 0x81	; 129
    4936:	df 4f       	sbci	r29, 0xFF	; 255
    4938:	e8 81       	ld	r30, Y
    493a:	f9 81       	ldd	r31, Y+1	; 0x01
    493c:	cf 57       	subi	r28, 0x7F	; 127
    493e:	d0 40       	sbci	r29, 0x00	; 0
    4940:	e2 95       	swap	r30
    4942:	f2 95       	swap	r31
    4944:	f0 7f       	andi	r31, 0xF0	; 240
    4946:	fe 27       	eor	r31, r30
    4948:	e0 7f       	andi	r30, 0xF0	; 240
    494a:	fe 27       	eor	r31, r30
    494c:	82 95       	swap	r24
    494e:	8f 70       	andi	r24, 0x0F	; 15
    4950:	e8 2b       	or	r30, r24
    4952:	ec 5e       	subi	r30, 0xEC	; 236
    4954:	ff 4a       	sbci	r31, 0xAF	; 175
    4956:	80 81       	ld	r24, Z
    4958:	48 2f       	mov	r20, r24
    495a:	50 e0       	ldi	r21, 0x00	; 0
    495c:	40 93 12 50 	sts	0x5012, r20	; 0x805012 <result>
    4960:	50 93 13 50 	sts	0x5013, r21	; 0x805013 <result+0x1>
    4964:	e0 91 2e 50 	lds	r30, 0x502E	; 0x80502e <ram+0x1a>
    4968:	f0 91 2f 50 	lds	r31, 0x502F	; 0x80502f <ram+0x1b>
    496c:	4f 01       	movw	r8, r30
    496e:	0f 2e       	mov	r0, r31
    4970:	00 0c       	add	r0, r0
    4972:	aa 08       	sbc	r10, r10
    4974:	bb 08       	sbc	r11, r11
    4976:	24 01       	movw	r4, r8
    4978:	35 01       	movw	r6, r10
    497a:	9f ef       	ldi	r25, 0xFF	; 255
    497c:	49 1a       	sub	r4, r25
    497e:	9f e1       	ldi	r25, 0x1F	; 31
    4980:	59 0a       	sbc	r5, r25
    4982:	61 08       	sbc	r6, r1
    4984:	71 08       	sbc	r7, r1
    4986:	40 e5       	ldi	r20, 0x50	; 80
    4988:	50 e4       	ldi	r21, 0x40	; 64
    498a:	60 e0       	ldi	r22, 0x00	; 0
    498c:	70 e0       	ldi	r23, 0x00	; 0
    498e:	48 19       	sub	r20, r8
    4990:	59 09       	sbc	r21, r9
    4992:	6a 09       	sbc	r22, r10
    4994:	7b 09       	sbc	r23, r11
    4996:	44 15       	cp	r20, r4
    4998:	55 05       	cpc	r21, r5
    499a:	66 05       	cpc	r22, r6
    499c:	77 05       	cpc	r23, r7
    499e:	0c f4       	brge	.+2      	; 0x49a2 <fetch+0x4414>
    49a0:	cc c1       	rjmp	.+920    	; 0x4d3a <fetch+0x47ac>
    49a2:	80 83       	st	Z, r24
    49a4:	c0 90 14 93 	lds	r12, 0x9314	; 0x809314 <totalcycles>
    49a8:	d0 90 15 93 	lds	r13, 0x9315	; 0x809315 <totalcycles+0x1>
    49ac:	e0 90 16 93 	lds	r14, 0x9316	; 0x809316 <totalcycles+0x2>
    49b0:	f0 90 17 93 	lds	r15, 0x9317	; 0x809317 <totalcycles+0x3>
    49b4:	20 91 10 50 	lds	r18, 0x5010	; 0x805010 <PC>
    49b8:	30 91 11 50 	lds	r19, 0x5011	; 0x805011 <PC+0x1>
    49bc:	2e 5f       	subi	r18, 0xFE	; 254
    49be:	3f 4f       	sbci	r19, 0xFF	; 255
    49c0:	20 93 10 50 	sts	0x5010, r18	; 0x805010 <PC>
    49c4:	30 93 11 50 	sts	0x5011, r19	; 0x805011 <PC+0x1>
    49c8:	af ef       	ldi	r26, 0xFF	; 255
    49ca:	ca 1a       	sub	r12, r26
    49cc:	da 0a       	sbc	r13, r26
    49ce:	ea 0a       	sbc	r14, r26
    49d0:	fa 0a       	sbc	r15, r26
    49d2:	0c 94 b5 1b 	jmp	0x376a	; 0x376a <fetch+0x31dc>
    49d6:	41 50       	subi	r20, 0x01	; 1
    49d8:	40 93 30 50 	sts	0x5030, r20	; 0x805030 <ram+0x1c>
    49dc:	96 cd       	rjmp	.-1236   	; 0x450a <fetch+0x3f7c>
    49de:	ec 5e       	subi	r30, 0xEC	; 236
    49e0:	ff 4a       	sbci	r31, 0xAF	; 175
    49e2:	90 83       	st	Z, r25
    49e4:	0c 94 aa 1b 	jmp	0x3754	; 0x3754 <fetch+0x31c6>
    49e8:	88 0f       	add	r24, r24
    49ea:	99 1f       	adc	r25, r25
    49ec:	b9 01       	movw	r22, r18
    49ee:	68 0f       	add	r22, r24
    49f0:	79 1f       	adc	r23, r25
    49f2:	c9 56       	subi	r28, 0x69	; 105
    49f4:	df 4f       	sbci	r29, 0xFF	; 255
    49f6:	68 83       	st	Y, r22
    49f8:	79 83       	std	Y+1, r23	; 0x01
    49fa:	c7 59       	subi	r28, 0x97	; 151
    49fc:	d0 40       	sbci	r29, 0x00	; 0
    49fe:	0c 94 a4 03 	jmp	0x748	; 0x748 <fetch+0x1ba>
    4a02:	80 91 71 50 	lds	r24, 0x5071	; 0x805071 <ram+0x5d>
    4a06:	90 91 72 50 	lds	r25, 0x5072	; 0x805072 <ram+0x5e>
    4a0a:	09 2e       	mov	r0, r25
    4a0c:	00 0c       	add	r0, r0
    4a0e:	aa 0b       	sbc	r26, r26
    4a10:	bb 0b       	sbc	r27, r27
    4a12:	01 96       	adiw	r24, 0x01	; 1
    4a14:	a1 1d       	adc	r26, r1
    4a16:	b1 1d       	adc	r27, r1
    4a18:	49 2f       	mov	r20, r25
    4a1a:	50 e0       	ldi	r21, 0x00	; 0
    4a1c:	54 2f       	mov	r21, r20
    4a1e:	44 27       	eor	r20, r20
    4a20:	9a 01       	movw	r18, r20
    4a22:	28 2b       	or	r18, r24
    4a24:	20 93 12 50 	sts	0x5012, r18	; 0x805012 <result>
    4a28:	30 93 13 50 	sts	0x5013, r19	; 0x805013 <result+0x1>
    4a2c:	a9 01       	movw	r20, r18
    4a2e:	03 2e       	mov	r0, r19
    4a30:	00 0c       	add	r0, r0
    4a32:	66 0b       	sbc	r22, r22
    4a34:	77 0b       	sbc	r23, r23
    4a36:	4f 5f       	subi	r20, 0xFF	; 255
    4a38:	5f 4f       	sbci	r21, 0xFF	; 255
    4a3a:	6f 4f       	sbci	r22, 0xFF	; 255
    4a3c:	7f 4f       	sbci	r23, 0xFF	; 255
    4a3e:	85 2f       	mov	r24, r21
    4a40:	90 e0       	ldi	r25, 0x00	; 0
    4a42:	50 93 72 50 	sts	0x5072, r21	; 0x805072 <ram+0x5e>
    4a46:	40 93 71 50 	sts	0x5071, r20	; 0x805071 <ram+0x5d>
    4a4a:	98 2f       	mov	r25, r24
    4a4c:	88 27       	eor	r24, r24
    4a4e:	84 2b       	or	r24, r20
    4a50:	fc 01       	movw	r30, r24
    4a52:	ec 5e       	subi	r30, 0xEC	; 236
    4a54:	ff 4a       	sbci	r31, 0xAF	; 175
    4a56:	80 81       	ld	r24, Z
    4a58:	f9 01       	movw	r30, r18
    4a5a:	ec 5e       	subi	r30, 0xEC	; 236
    4a5c:	ff 4a       	sbci	r31, 0xAF	; 175
    4a5e:	20 81       	ld	r18, Z
    4a60:	90 e0       	ldi	r25, 0x00	; 0
    4a62:	92 2b       	or	r25, r18
    4a64:	80 93 10 50 	sts	0x5010, r24	; 0x805010 <PC>
    4a68:	90 93 11 50 	sts	0x5011, r25	; 0x805011 <PC+0x1>
    4a6c:	81 e0       	ldi	r24, 0x01	; 1
    4a6e:	90 e0       	ldi	r25, 0x00	; 0
    4a70:	80 93 04 20 	sts	0x2004, r24	; 0x802004 <stop_fetch>
    4a74:	90 93 05 20 	sts	0x2005, r25	; 0x802005 <stop_fetch+0x1>
    4a78:	e2 e0       	ldi	r30, 0x02	; 2
    4a7a:	92 e0       	ldi	r25, 0x02	; 2
    4a7c:	0c 94 b2 03 	jmp	0x764	; 0x764 <fetch+0x1d6>
    4a80:	80 91 71 50 	lds	r24, 0x5071	; 0x805071 <ram+0x5d>
    4a84:	90 91 72 50 	lds	r25, 0x5072	; 0x805072 <ram+0x5e>
    4a88:	09 2e       	mov	r0, r25
    4a8a:	00 0c       	add	r0, r0
    4a8c:	aa 0b       	sbc	r26, r26
    4a8e:	bb 0b       	sbc	r27, r27
    4a90:	01 96       	adiw	r24, 0x01	; 1
    4a92:	a1 1d       	adc	r26, r1
    4a94:	b1 1d       	adc	r27, r1
    4a96:	49 2f       	mov	r20, r25
    4a98:	50 e0       	ldi	r21, 0x00	; 0
    4a9a:	54 2f       	mov	r21, r20
    4a9c:	44 27       	eor	r20, r20
    4a9e:	9a 01       	movw	r18, r20
    4aa0:	28 2b       	or	r18, r24
    4aa2:	20 93 12 50 	sts	0x5012, r18	; 0x805012 <result>
    4aa6:	30 93 13 50 	sts	0x5013, r19	; 0x805013 <result+0x1>
    4aaa:	a9 01       	movw	r20, r18
    4aac:	03 2e       	mov	r0, r19
    4aae:	00 0c       	add	r0, r0
    4ab0:	66 0b       	sbc	r22, r22
    4ab2:	77 0b       	sbc	r23, r23
    4ab4:	4f 5f       	subi	r20, 0xFF	; 255
    4ab6:	5f 4f       	sbci	r21, 0xFF	; 255
    4ab8:	6f 4f       	sbci	r22, 0xFF	; 255
    4aba:	7f 4f       	sbci	r23, 0xFF	; 255
    4abc:	85 2f       	mov	r24, r21
    4abe:	90 e0       	ldi	r25, 0x00	; 0
    4ac0:	50 93 72 50 	sts	0x5072, r21	; 0x805072 <ram+0x5e>
    4ac4:	40 93 71 50 	sts	0x5071, r20	; 0x805071 <ram+0x5d>
    4ac8:	e0 91 0a 40 	lds	r30, 0x400A	; 0x80400a <newStatus>
    4acc:	e8 7f       	andi	r30, 0xF8	; 248
    4ace:	e1 60       	ori	r30, 0x01	; 1
    4ad0:	e0 93 0a 40 	sts	0x400A, r30	; 0x80400a <newStatus>
    4ad4:	98 2f       	mov	r25, r24
    4ad6:	88 27       	eor	r24, r24
    4ad8:	84 2b       	or	r24, r20
    4ada:	fc 01       	movw	r30, r24
    4adc:	ec 5e       	subi	r30, 0xEC	; 236
    4ade:	ff 4a       	sbci	r31, 0xAF	; 175
    4ae0:	80 81       	ld	r24, Z
    4ae2:	90 e0       	ldi	r25, 0x00	; 0
    4ae4:	98 2f       	mov	r25, r24
    4ae6:	88 27       	eor	r24, r24
    4ae8:	f9 01       	movw	r30, r18
    4aea:	ec 5e       	subi	r30, 0xEC	; 236
    4aec:	ff 4a       	sbci	r31, 0xAF	; 175
    4aee:	20 81       	ld	r18, Z
    4af0:	82 2b       	or	r24, r18
    4af2:	80 93 10 50 	sts	0x5010, r24	; 0x805010 <PC>
    4af6:	90 93 11 50 	sts	0x5011, r25	; 0x805011 <PC+0x1>
    4afa:	e2 e0       	ldi	r30, 0x02	; 2
    4afc:	92 e0       	ldi	r25, 0x02	; 2
    4afe:	0c 94 b2 03 	jmp	0x764	; 0x764 <fetch+0x1d6>
    4b02:	80 91 32 50 	lds	r24, 0x5032	; 0x805032 <ram+0x1e>
    4b06:	90 91 33 50 	lds	r25, 0x5033	; 0x805033 <ram+0x1f>
    4b0a:	88 0f       	add	r24, r24
    4b0c:	99 1f       	adc	r25, r25
    4b0e:	40 91 00 20 	lds	r20, 0x2000	; 0x802000 <__DATA_REGION_ORIGIN__>
    4b12:	50 91 01 20 	lds	r21, 0x2001	; 0x802001 <__DATA_REGION_ORIGIN__+0x1>
    4b16:	48 0f       	add	r20, r24
    4b18:	59 1f       	adc	r21, r25
    4b1a:	40 93 10 50 	sts	0x5010, r20	; 0x805010 <PC>
    4b1e:	50 93 11 50 	sts	0x5011, r21	; 0x805011 <PC+0x1>
    4b22:	40 93 12 50 	sts	0x5012, r20	; 0x805012 <result>
    4b26:	50 93 13 50 	sts	0x5013, r21	; 0x805013 <result+0x1>
    4b2a:	2e 5f       	subi	r18, 0xFE	; 254
    4b2c:	3f 4f       	sbci	r19, 0xFF	; 255
    4b2e:	e0 91 71 50 	lds	r30, 0x5071	; 0x805071 <ram+0x5d>
    4b32:	f0 91 72 50 	lds	r31, 0x5072	; 0x805072 <ram+0x5e>
    4b36:	ec 5e       	subi	r30, 0xEC	; 236
    4b38:	ff 4a       	sbci	r31, 0xAF	; 175
    4b3a:	20 83       	st	Z, r18
    4b3c:	40 91 71 50 	lds	r20, 0x5071	; 0x805071 <ram+0x5d>
    4b40:	50 91 72 50 	lds	r21, 0x5072	; 0x805072 <ram+0x5e>
    4b44:	05 2e       	mov	r0, r21
    4b46:	00 0c       	add	r0, r0
    4b48:	66 0b       	sbc	r22, r22
    4b4a:	77 0b       	sbc	r23, r23
    4b4c:	41 50       	subi	r20, 0x01	; 1
    4b4e:	51 09       	sbc	r21, r1
    4b50:	61 09       	sbc	r22, r1
    4b52:	71 09       	sbc	r23, r1
    4b54:	85 2f       	mov	r24, r21
    4b56:	90 e0       	ldi	r25, 0x00	; 0
    4b58:	50 93 72 50 	sts	0x5072, r21	; 0x805072 <ram+0x5e>
    4b5c:	40 93 71 50 	sts	0x5071, r20	; 0x805071 <ram+0x5d>
    4b60:	98 2f       	mov	r25, r24
    4b62:	88 27       	eor	r24, r24
    4b64:	84 2b       	or	r24, r20
    4b66:	fc 01       	movw	r30, r24
    4b68:	ec 5e       	subi	r30, 0xEC	; 236
    4b6a:	ff 4a       	sbci	r31, 0xAF	; 175
    4b6c:	30 83       	st	Z, r19
    4b6e:	80 91 71 50 	lds	r24, 0x5071	; 0x805071 <ram+0x5d>
    4b72:	90 91 72 50 	lds	r25, 0x5072	; 0x805072 <ram+0x5e>
    4b76:	09 2e       	mov	r0, r25
    4b78:	00 0c       	add	r0, r0
    4b7a:	aa 0b       	sbc	r26, r26
    4b7c:	bb 0b       	sbc	r27, r27
    4b7e:	01 97       	sbiw	r24, 0x01	; 1
    4b80:	a1 09       	sbc	r26, r1
    4b82:	b1 09       	sbc	r27, r1
    4b84:	90 93 72 50 	sts	0x5072, r25	; 0x805072 <ram+0x5e>
    4b88:	80 93 71 50 	sts	0x5071, r24	; 0x805071 <ram+0x5d>
    4b8c:	e2 e0       	ldi	r30, 0x02	; 2
    4b8e:	92 e0       	ldi	r25, 0x02	; 2
    4b90:	0c 94 b2 03 	jmp	0x764	; 0x764 <fetch+0x1d6>
    4b94:	81 50       	subi	r24, 0x01	; 1
    4b96:	80 93 2e 50 	sts	0x502E, r24	; 0x80502e <ram+0x1a>
    4b9a:	0c 94 7d 1b 	jmp	0x36fa	; 0x36fa <fetch+0x316c>
    4b9e:	91 70       	andi	r25, 0x01	; 1
    4ba0:	cf 57       	subi	r28, 0x7F	; 127
    4ba2:	df 4f       	sbci	r29, 0xFF	; 255
    4ba4:	98 83       	st	Y, r25
    4ba6:	c1 58       	subi	r28, 0x81	; 129
    4ba8:	d0 40       	sbci	r29, 0x00	; 0
    4baa:	ce 57       	subi	r28, 0x7E	; 126
    4bac:	df 4f       	sbci	r29, 0xFF	; 255
    4bae:	18 82       	st	Y, r1
    4bb0:	c2 58       	subi	r28, 0x82	; 130
    4bb2:	d0 40       	sbci	r29, 0x00	; 0
    4bb4:	cf 57       	subi	r28, 0x7F	; 127
    4bb6:	df 4f       	sbci	r29, 0xFF	; 255
    4bb8:	e8 81       	ld	r30, Y
    4bba:	f9 81       	ldd	r31, Y+1	; 0x01
    4bbc:	c1 58       	subi	r28, 0x81	; 129
    4bbe:	d0 40       	sbci	r29, 0x00	; 0
    4bc0:	e2 95       	swap	r30
    4bc2:	f2 95       	swap	r31
    4bc4:	f0 7f       	andi	r31, 0xF0	; 240
    4bc6:	fe 27       	eor	r31, r30
    4bc8:	e0 7f       	andi	r30, 0xF0	; 240
    4bca:	fe 27       	eor	r31, r30
    4bcc:	82 95       	swap	r24
    4bce:	8f 70       	andi	r24, 0x0F	; 15
    4bd0:	e8 2b       	or	r30, r24
    4bd2:	ec 5e       	subi	r30, 0xEC	; 236
    4bd4:	ff 4a       	sbci	r31, 0xAF	; 175
    4bd6:	80 81       	ld	r24, Z
    4bd8:	48 2f       	mov	r20, r24
    4bda:	50 e0       	ldi	r21, 0x00	; 0
    4bdc:	40 93 12 50 	sts	0x5012, r20	; 0x805012 <result>
    4be0:	50 93 13 50 	sts	0x5013, r21	; 0x805013 <result+0x1>
    4be4:	e0 91 2e 50 	lds	r30, 0x502E	; 0x80502e <ram+0x1a>
    4be8:	f0 91 2f 50 	lds	r31, 0x502F	; 0x80502f <ram+0x1b>
    4bec:	4f 01       	movw	r8, r30
    4bee:	0f 2e       	mov	r0, r31
    4bf0:	00 0c       	add	r0, r0
    4bf2:	aa 08       	sbc	r10, r10
    4bf4:	bb 08       	sbc	r11, r11
    4bf6:	24 01       	movw	r4, r8
    4bf8:	35 01       	movw	r6, r10
    4bfa:	bf ef       	ldi	r27, 0xFF	; 255
    4bfc:	4b 1a       	sub	r4, r27
    4bfe:	bf e1       	ldi	r27, 0x1F	; 31
    4c00:	5b 0a       	sbc	r5, r27
    4c02:	61 08       	sbc	r6, r1
    4c04:	71 08       	sbc	r7, r1
    4c06:	40 e5       	ldi	r20, 0x50	; 80
    4c08:	50 e4       	ldi	r21, 0x40	; 64
    4c0a:	60 e0       	ldi	r22, 0x00	; 0
    4c0c:	70 e0       	ldi	r23, 0x00	; 0
    4c0e:	48 19       	sub	r20, r8
    4c10:	59 09       	sbc	r21, r9
    4c12:	6a 09       	sbc	r22, r10
    4c14:	7b 09       	sbc	r23, r11
    4c16:	44 15       	cp	r20, r4
    4c18:	55 05       	cpc	r21, r5
    4c1a:	66 05       	cpc	r22, r6
    4c1c:	77 05       	cpc	r23, r7
    4c1e:	0c f4       	brge	.+2      	; 0x4c22 <fetch+0x4694>
    4c20:	ea c0       	rjmp	.+468    	; 0x4df6 <fetch+0x4868>
    4c22:	80 83       	st	Z, r24
    4c24:	c0 90 14 93 	lds	r12, 0x9314	; 0x809314 <totalcycles>
    4c28:	d0 90 15 93 	lds	r13, 0x9315	; 0x809315 <totalcycles+0x1>
    4c2c:	e0 90 16 93 	lds	r14, 0x9316	; 0x809316 <totalcycles+0x2>
    4c30:	f0 90 17 93 	lds	r15, 0x9317	; 0x809317 <totalcycles+0x3>
    4c34:	20 91 10 50 	lds	r18, 0x5010	; 0x805010 <PC>
    4c38:	30 91 11 50 	lds	r19, 0x5011	; 0x805011 <PC+0x1>
    4c3c:	80 91 2e 50 	lds	r24, 0x502E	; 0x80502e <ram+0x1a>
    4c40:	8f 3f       	cpi	r24, 0xFF	; 255
    4c42:	09 f4       	brne	.+2      	; 0x4c46 <fetch+0x46b8>
    4c44:	b7 c1       	rjmp	.+878    	; 0x4fb4 <fetch+0x4a26>
    4c46:	8f 5f       	subi	r24, 0xFF	; 255
    4c48:	80 93 2e 50 	sts	0x502E, r24	; 0x80502e <ram+0x1a>
    4c4c:	2e 5f       	subi	r18, 0xFE	; 254
    4c4e:	3f 4f       	sbci	r19, 0xFF	; 255
    4c50:	20 93 10 50 	sts	0x5010, r18	; 0x805010 <PC>
    4c54:	30 93 11 50 	sts	0x5011, r19	; 0x805011 <PC+0x1>
    4c58:	ef ef       	ldi	r30, 0xFF	; 255
    4c5a:	ce 1a       	sub	r12, r30
    4c5c:	de 0a       	sbc	r13, r30
    4c5e:	ee 0a       	sbc	r14, r30
    4c60:	fe 0a       	sbc	r15, r30
    4c62:	0c 94 b5 1b 	jmp	0x376a	; 0x376a <fetch+0x31dc>
    4c66:	40 91 30 50 	lds	r20, 0x5030	; 0x805030 <ram+0x1c>
    4c6a:	41 11       	cpse	r20, r1
    4c6c:	b5 c0       	rjmp	.+362    	; 0x4dd8 <fetch+0x484a>
    4c6e:	4f ef       	ldi	r20, 0xFF	; 255
    4c70:	40 93 30 50 	sts	0x5030, r20	; 0x805030 <ram+0x1c>
    4c74:	40 91 31 50 	lds	r20, 0x5031	; 0x805031 <ram+0x1d>
    4c78:	41 50       	subi	r20, 0x01	; 1
    4c7a:	40 93 31 50 	sts	0x5031, r20	; 0x805031 <ram+0x1d>
    4c7e:	91 70       	andi	r25, 0x01	; 1
    4c80:	e0 96       	adiw	r28, 0x30	; 48
    4c82:	9f af       	std	Y+63, r25	; 0x3f
    4c84:	e0 97       	sbiw	r28, 0x30	; 48
    4c86:	e1 96       	adiw	r28, 0x31	; 49
    4c88:	1f ae       	std	Y+63, r1	; 0x3f
    4c8a:	e1 97       	sbiw	r28, 0x31	; 49
    4c8c:	e1 96       	adiw	r28, 0x31	; 49
    4c8e:	4e ad       	ldd	r20, Y+62	; 0x3e
    4c90:	5f ad       	ldd	r21, Y+63	; 0x3f
    4c92:	e1 97       	sbiw	r28, 0x31	; 49
    4c94:	42 95       	swap	r20
    4c96:	52 95       	swap	r21
    4c98:	50 7f       	andi	r21, 0xF0	; 240
    4c9a:	54 27       	eor	r21, r20
    4c9c:	40 7f       	andi	r20, 0xF0	; 240
    4c9e:	54 27       	eor	r21, r20
    4ca0:	82 95       	swap	r24
    4ca2:	8f 70       	andi	r24, 0x0F	; 15
    4ca4:	da 01       	movw	r26, r20
    4ca6:	a8 2b       	or	r26, r24
    4ca8:	cd 01       	movw	r24, r26
    4caa:	80 93 12 50 	sts	0x5012, r24	; 0x805012 <result>
    4cae:	90 93 13 50 	sts	0x5013, r25	; 0x805013 <result+0x1>
    4cb2:	e0 91 30 50 	lds	r30, 0x5030	; 0x805030 <ram+0x1c>
    4cb6:	f0 91 31 50 	lds	r31, 0x5031	; 0x805031 <ram+0x1d>
    4cba:	6f 01       	movw	r12, r30
    4cbc:	0f 2e       	mov	r0, r31
    4cbe:	00 0c       	add	r0, r0
    4cc0:	ee 08       	sbc	r14, r14
    4cc2:	ff 08       	sbc	r15, r15
    4cc4:	26 01       	movw	r4, r12
    4cc6:	37 01       	movw	r6, r14
    4cc8:	bf ef       	ldi	r27, 0xFF	; 255
    4cca:	4b 1a       	sub	r4, r27
    4ccc:	bf e1       	ldi	r27, 0x1F	; 31
    4cce:	5b 0a       	sbc	r5, r27
    4cd0:	61 08       	sbc	r6, r1
    4cd2:	71 08       	sbc	r7, r1
    4cd4:	40 e5       	ldi	r20, 0x50	; 80
    4cd6:	50 e4       	ldi	r21, 0x40	; 64
    4cd8:	60 e0       	ldi	r22, 0x00	; 0
    4cda:	70 e0       	ldi	r23, 0x00	; 0
    4cdc:	4c 19       	sub	r20, r12
    4cde:	5d 09       	sbc	r21, r13
    4ce0:	6e 09       	sbc	r22, r14
    4ce2:	7f 09       	sbc	r23, r15
    4ce4:	44 15       	cp	r20, r4
    4ce6:	55 05       	cpc	r21, r5
    4ce8:	66 05       	cpc	r22, r6
    4cea:	77 05       	cpc	r23, r7
    4cec:	14 f4       	brge	.+4      	; 0x4cf2 <fetch+0x4764>
    4cee:	ec 5e       	subi	r30, 0xEC	; 236
    4cf0:	ff 4a       	sbci	r31, 0xAF	; 175
    4cf2:	40 81       	ld	r20, Z
    4cf4:	fc 01       	movw	r30, r24
    4cf6:	ec 5e       	subi	r30, 0xEC	; 236
    4cf8:	ff 4a       	sbci	r31, 0xAF	; 175
    4cfa:	40 83       	st	Z, r20
    4cfc:	2e 5f       	subi	r18, 0xFE	; 254
    4cfe:	3f 4f       	sbci	r19, 0xFF	; 255
    4d00:	20 93 10 50 	sts	0x5010, r18	; 0x805010 <PC>
    4d04:	30 93 11 50 	sts	0x5011, r19	; 0x805011 <PC+0x1>
    4d08:	e3 e0       	ldi	r30, 0x03	; 3
    4d0a:	8e 0e       	add	r8, r30
    4d0c:	91 1c       	adc	r9, r1
    4d0e:	a1 1c       	adc	r10, r1
    4d10:	b1 1c       	adc	r11, r1
    4d12:	80 92 14 93 	sts	0x9314, r8	; 0x809314 <totalcycles>
    4d16:	90 92 15 93 	sts	0x9315, r9	; 0x809315 <totalcycles+0x1>
    4d1a:	a0 92 16 93 	sts	0x9316, r10	; 0x809316 <totalcycles+0x2>
    4d1e:	b0 92 17 93 	sts	0x9317, r11	; 0x809317 <totalcycles+0x3>
    4d22:	e2 e0       	ldi	r30, 0x02	; 2
    4d24:	92 e0       	ldi	r25, 0x02	; 2
    4d26:	0c 94 b2 03 	jmp	0x764	; 0x764 <fetch+0x1d6>
    4d2a:	80 91 31 50 	lds	r24, 0x5031	; 0x805031 <ram+0x1d>
    4d2e:	8f 5f       	subi	r24, 0xFF	; 255
    4d30:	80 93 31 50 	sts	0x5031, r24	; 0x805031 <ram+0x1d>
    4d34:	10 92 30 50 	sts	0x5030, r1	; 0x805030 <ram+0x1c>
    4d38:	e4 ca       	rjmp	.-2616   	; 0x4302 <fetch+0x3d74>
    4d3a:	ec 5e       	subi	r30, 0xEC	; 236
    4d3c:	ff 4a       	sbci	r31, 0xAF	; 175
    4d3e:	80 83       	st	Z, r24
    4d40:	3d ce       	rjmp	.-902    	; 0x49bc <fetch+0x442e>
    4d42:	91 70       	andi	r25, 0x01	; 1
    4d44:	e2 96       	adiw	r28, 0x32	; 50
    4d46:	9f af       	std	Y+63, r25	; 0x3f
    4d48:	e2 97       	sbiw	r28, 0x32	; 50
    4d4a:	e3 96       	adiw	r28, 0x33	; 51
    4d4c:	1f ae       	std	Y+63, r1	; 0x3f
    4d4e:	e3 97       	sbiw	r28, 0x33	; 51
    4d50:	e3 96       	adiw	r28, 0x33	; 51
    4d52:	4e ad       	ldd	r20, Y+62	; 0x3e
    4d54:	5f ad       	ldd	r21, Y+63	; 0x3f
    4d56:	e3 97       	sbiw	r28, 0x33	; 51
    4d58:	42 95       	swap	r20
    4d5a:	52 95       	swap	r21
    4d5c:	50 7f       	andi	r21, 0xF0	; 240
    4d5e:	54 27       	eor	r21, r20
    4d60:	40 7f       	andi	r20, 0xF0	; 240
    4d62:	54 27       	eor	r21, r20
    4d64:	82 95       	swap	r24
    4d66:	8f 70       	andi	r24, 0x0F	; 15
    4d68:	6a 01       	movw	r12, r20
    4d6a:	c8 2a       	or	r12, r24
    4d6c:	c6 01       	movw	r24, r12
    4d6e:	80 93 12 50 	sts	0x5012, r24	; 0x805012 <result>
    4d72:	90 93 13 50 	sts	0x5013, r25	; 0x805013 <result+0x1>
    4d76:	e0 91 2e 50 	lds	r30, 0x502E	; 0x80502e <ram+0x1a>
    4d7a:	f0 91 2f 50 	lds	r31, 0x502F	; 0x80502f <ram+0x1b>
    4d7e:	6f 01       	movw	r12, r30
    4d80:	0f 2e       	mov	r0, r31
    4d82:	00 0c       	add	r0, r0
    4d84:	ee 08       	sbc	r14, r14
    4d86:	ff 08       	sbc	r15, r15
    4d88:	46 01       	movw	r8, r12
    4d8a:	57 01       	movw	r10, r14
    4d8c:	0f ef       	ldi	r16, 0xFF	; 255
    4d8e:	80 1a       	sub	r8, r16
    4d90:	0f e1       	ldi	r16, 0x1F	; 31
    4d92:	90 0a       	sbc	r9, r16
    4d94:	a1 08       	sbc	r10, r1
    4d96:	b1 08       	sbc	r11, r1
    4d98:	40 e5       	ldi	r20, 0x50	; 80
    4d9a:	50 e4       	ldi	r21, 0x40	; 64
    4d9c:	60 e0       	ldi	r22, 0x00	; 0
    4d9e:	70 e0       	ldi	r23, 0x00	; 0
    4da0:	4c 19       	sub	r20, r12
    4da2:	5d 09       	sbc	r21, r13
    4da4:	6e 09       	sbc	r22, r14
    4da6:	7f 09       	sbc	r23, r15
    4da8:	48 15       	cp	r20, r8
    4daa:	59 05       	cpc	r21, r9
    4dac:	6a 05       	cpc	r22, r10
    4dae:	7b 05       	cpc	r23, r11
    4db0:	14 f4       	brge	.+4      	; 0x4db6 <fetch+0x4828>
    4db2:	ec 5e       	subi	r30, 0xEC	; 236
    4db4:	ff 4a       	sbci	r31, 0xAF	; 175
    4db6:	40 81       	ld	r20, Z
    4db8:	fc 01       	movw	r30, r24
    4dba:	0c 94 17 06 	jmp	0xc2e	; 0xc2e <fetch+0x6a0>
    4dbe:	88 0f       	add	r24, r24
    4dc0:	99 1f       	adc	r25, r25
    4dc2:	28 0f       	add	r18, r24
    4dc4:	39 1f       	adc	r19, r25
    4dc6:	7e cb       	rjmp	.-2308   	; 0x44c4 <fetch+0x3f36>
    4dc8:	80 91 33 50 	lds	r24, 0x5033	; 0x805033 <ram+0x1f>
    4dcc:	8f 5f       	subi	r24, 0xFF	; 255
    4dce:	80 93 33 50 	sts	0x5033, r24	; 0x805033 <ram+0x1f>
    4dd2:	10 92 32 50 	sts	0x5032, r1	; 0x805032 <ram+0x1e>
    4dd6:	4f cc       	rjmp	.-1890   	; 0x4676 <fetch+0x40e8>
    4dd8:	41 50       	subi	r20, 0x01	; 1
    4dda:	40 93 30 50 	sts	0x5030, r20	; 0x805030 <ram+0x1c>
    4dde:	4f cf       	rjmp	.-354    	; 0x4c7e <fetch+0x46f0>
    4de0:	80 91 33 50 	lds	r24, 0x5033	; 0x805033 <ram+0x1f>
    4de4:	8f 5f       	subi	r24, 0xFF	; 255
    4de6:	80 93 33 50 	sts	0x5033, r24	; 0x805033 <ram+0x1f>
    4dea:	10 92 32 50 	sts	0x5032, r1	; 0x805032 <ram+0x1e>
    4dee:	ea ca       	rjmp	.-2604   	; 0x43c4 <fetch+0x3e36>
    4df0:	10 92 31 50 	sts	0x5031, r1	; 0x805031 <ram+0x1d>
    4df4:	04 cd       	rjmp	.-1528   	; 0x47fe <fetch+0x4270>
    4df6:	ec 5e       	subi	r30, 0xEC	; 236
    4df8:	ff 4a       	sbci	r31, 0xAF	; 175
    4dfa:	80 83       	st	Z, r24
    4dfc:	1f cf       	rjmp	.-450    	; 0x4c3c <fetch+0x46ae>
    4dfe:	91 70       	andi	r25, 0x01	; 1
    4e00:	e6 96       	adiw	r28, 0x36	; 54
    4e02:	9f af       	std	Y+63, r25	; 0x3f
    4e04:	e6 97       	sbiw	r28, 0x36	; 54
    4e06:	e7 96       	adiw	r28, 0x37	; 55
    4e08:	1f ae       	std	Y+63, r1	; 0x3f
    4e0a:	e7 97       	sbiw	r28, 0x37	; 55
    4e0c:	e7 96       	adiw	r28, 0x37	; 55
    4e0e:	4e ad       	ldd	r20, Y+62	; 0x3e
    4e10:	5f ad       	ldd	r21, Y+63	; 0x3f
    4e12:	e7 97       	sbiw	r28, 0x37	; 55
    4e14:	42 95       	swap	r20
    4e16:	52 95       	swap	r21
    4e18:	50 7f       	andi	r21, 0xF0	; 240
    4e1a:	54 27       	eor	r21, r20
    4e1c:	40 7f       	andi	r20, 0xF0	; 240
    4e1e:	54 27       	eor	r21, r20
    4e20:	82 95       	swap	r24
    4e22:	8f 70       	andi	r24, 0x0F	; 15
    4e24:	da 01       	movw	r26, r20
    4e26:	a8 2b       	or	r26, r24
    4e28:	cd 01       	movw	r24, r26
    4e2a:	80 93 12 50 	sts	0x5012, r24	; 0x805012 <result>
    4e2e:	90 93 13 50 	sts	0x5013, r25	; 0x805013 <result+0x1>
    4e32:	40 91 2f 50 	lds	r20, 0x502F	; 0x80502f <ram+0x1b>
    4e36:	e0 91 2e 50 	lds	r30, 0x502E	; 0x80502e <ram+0x1a>
    4e3a:	f0 e0       	ldi	r31, 0x00	; 0
    4e3c:	31 97       	sbiw	r30, 0x01	; 1
    4e3e:	f4 2b       	or	r31, r20
    4e40:	6f 01       	movw	r12, r30
    4e42:	0f 2e       	mov	r0, r31
    4e44:	00 0c       	add	r0, r0
    4e46:	ee 08       	sbc	r14, r14
    4e48:	ff 08       	sbc	r15, r15
    4e4a:	26 01       	movw	r4, r12
    4e4c:	37 01       	movw	r6, r14
    4e4e:	bf ef       	ldi	r27, 0xFF	; 255
    4e50:	4b 1a       	sub	r4, r27
    4e52:	bf e1       	ldi	r27, 0x1F	; 31
    4e54:	5b 0a       	sbc	r5, r27
    4e56:	61 08       	sbc	r6, r1
    4e58:	71 08       	sbc	r7, r1
    4e5a:	40 e5       	ldi	r20, 0x50	; 80
    4e5c:	50 e4       	ldi	r21, 0x40	; 64
    4e5e:	60 e0       	ldi	r22, 0x00	; 0
    4e60:	70 e0       	ldi	r23, 0x00	; 0
    4e62:	4c 19       	sub	r20, r12
    4e64:	5d 09       	sbc	r21, r13
    4e66:	6e 09       	sbc	r22, r14
    4e68:	7f 09       	sbc	r23, r15
    4e6a:	44 15       	cp	r20, r4
    4e6c:	55 05       	cpc	r21, r5
    4e6e:	66 05       	cpc	r22, r6
    4e70:	77 05       	cpc	r23, r7
    4e72:	14 f4       	brge	.+4      	; 0x4e78 <fetch+0x48ea>
    4e74:	ec 5e       	subi	r30, 0xEC	; 236
    4e76:	ff 4a       	sbci	r31, 0xAF	; 175
    4e78:	40 81       	ld	r20, Z
    4e7a:	fc 01       	movw	r30, r24
    4e7c:	ec 5e       	subi	r30, 0xEC	; 236
    4e7e:	ff 4a       	sbci	r31, 0xAF	; 175
    4e80:	40 83       	st	Z, r20
    4e82:	80 91 2e 50 	lds	r24, 0x502E	; 0x80502e <ram+0x1a>
    4e86:	88 23       	and	r24, r24
    4e88:	09 f4       	brne	.+2      	; 0x4e8c <fetch+0x48fe>
    4e8a:	9c c0       	rjmp	.+312    	; 0x4fc4 <fetch+0x4a36>
    4e8c:	81 50       	subi	r24, 0x01	; 1
    4e8e:	80 93 2e 50 	sts	0x502E, r24	; 0x80502e <ram+0x1a>
    4e92:	34 cf       	rjmp	.-408    	; 0x4cfc <fetch+0x476e>
    4e94:	91 70       	andi	r25, 0x01	; 1
    4e96:	e4 96       	adiw	r28, 0x34	; 52
    4e98:	9f af       	std	Y+63, r25	; 0x3f
    4e9a:	e4 97       	sbiw	r28, 0x34	; 52
    4e9c:	e5 96       	adiw	r28, 0x35	; 53
    4e9e:	1f ae       	std	Y+63, r1	; 0x3f
    4ea0:	e5 97       	sbiw	r28, 0x35	; 53
    4ea2:	e5 96       	adiw	r28, 0x35	; 53
    4ea4:	4e ad       	ldd	r20, Y+62	; 0x3e
    4ea6:	5f ad       	ldd	r21, Y+63	; 0x3f
    4ea8:	e5 97       	sbiw	r28, 0x35	; 53
    4eaa:	42 95       	swap	r20
    4eac:	52 95       	swap	r21
    4eae:	50 7f       	andi	r21, 0xF0	; 240
    4eb0:	54 27       	eor	r21, r20
    4eb2:	40 7f       	andi	r20, 0xF0	; 240
    4eb4:	54 27       	eor	r21, r20
    4eb6:	82 95       	swap	r24
    4eb8:	8f 70       	andi	r24, 0x0F	; 15
    4eba:	ba 01       	movw	r22, r20
    4ebc:	68 2b       	or	r22, r24
    4ebe:	cb 01       	movw	r24, r22
    4ec0:	80 93 12 50 	sts	0x5012, r24	; 0x805012 <result>
    4ec4:	90 93 13 50 	sts	0x5013, r25	; 0x805013 <result+0x1>
    4ec8:	e0 91 2e 50 	lds	r30, 0x502E	; 0x80502e <ram+0x1a>
    4ecc:	f0 91 2f 50 	lds	r31, 0x502F	; 0x80502f <ram+0x1b>
    4ed0:	6f 01       	movw	r12, r30
    4ed2:	0f 2e       	mov	r0, r31
    4ed4:	00 0c       	add	r0, r0
    4ed6:	ee 08       	sbc	r14, r14
    4ed8:	ff 08       	sbc	r15, r15
    4eda:	26 01       	movw	r4, r12
    4edc:	37 01       	movw	r6, r14
    4ede:	7f ef       	ldi	r23, 0xFF	; 255
    4ee0:	47 1a       	sub	r4, r23
    4ee2:	7f e1       	ldi	r23, 0x1F	; 31
    4ee4:	57 0a       	sbc	r5, r23
    4ee6:	61 08       	sbc	r6, r1
    4ee8:	71 08       	sbc	r7, r1
    4eea:	40 e5       	ldi	r20, 0x50	; 80
    4eec:	50 e4       	ldi	r21, 0x40	; 64
    4eee:	60 e0       	ldi	r22, 0x00	; 0
    4ef0:	70 e0       	ldi	r23, 0x00	; 0
    4ef2:	4c 19       	sub	r20, r12
    4ef4:	5d 09       	sbc	r21, r13
    4ef6:	6e 09       	sbc	r22, r14
    4ef8:	7f 09       	sbc	r23, r15
    4efa:	44 15       	cp	r20, r4
    4efc:	55 05       	cpc	r21, r5
    4efe:	66 05       	cpc	r22, r6
    4f00:	77 05       	cpc	r23, r7
    4f02:	14 f4       	brge	.+4      	; 0x4f08 <fetch+0x497a>
    4f04:	ec 5e       	subi	r30, 0xEC	; 236
    4f06:	ff 4a       	sbci	r31, 0xAF	; 175
    4f08:	40 81       	ld	r20, Z
    4f0a:	fc 01       	movw	r30, r24
    4f0c:	ec 5e       	subi	r30, 0xEC	; 236
    4f0e:	ff 4a       	sbci	r31, 0xAF	; 175
    4f10:	40 83       	st	Z, r20
    4f12:	80 91 2e 50 	lds	r24, 0x502E	; 0x80502e <ram+0x1a>
    4f16:	8f 3f       	cpi	r24, 0xFF	; 255
    4f18:	51 f0       	breq	.+20     	; 0x4f2e <fetch+0x49a0>
    4f1a:	8f 5f       	subi	r24, 0xFF	; 255
    4f1c:	80 93 2e 50 	sts	0x502E, r24	; 0x80502e <ram+0x1a>
    4f20:	6e cc       	rjmp	.-1828   	; 0x47fe <fetch+0x4270>
    4f22:	80 e0       	ldi	r24, 0x00	; 0
    4f24:	0c 94 83 18 	jmp	0x3106	; 0x3106 <fetch+0x2b78>
    4f28:	70 e0       	ldi	r23, 0x00	; 0
    4f2a:	0c 94 67 18 	jmp	0x30ce	; 0x30ce <fetch+0x2b40>
    4f2e:	80 91 2f 50 	lds	r24, 0x502F	; 0x80502f <ram+0x1b>
    4f32:	8f 5f       	subi	r24, 0xFF	; 255
    4f34:	80 93 2f 50 	sts	0x502F, r24	; 0x80502f <ram+0x1b>
    4f38:	10 92 2e 50 	sts	0x502E, r1	; 0x80502e <ram+0x1a>
    4f3c:	60 cc       	rjmp	.-1856   	; 0x47fe <fetch+0x4270>
    4f3e:	60 81       	ld	r22, Z
    4f40:	dc 01       	movw	r26, r24
    4f42:	a3 5f       	subi	r26, 0xF3	; 243
    4f44:	bf 4b       	sbci	r27, 0xBF	; 191
    4f46:	a9 83       	std	Y+1, r26	; 0x01
    4f48:	ba 83       	std	Y+2, r27	; 0x02
    4f4a:	7c 91       	ld	r23, X
    4f4c:	70 83       	st	Z, r23
    4f4e:	6c 93       	st	X, r22
    4f50:	88 0f       	add	r24, r24
    4f52:	99 1f       	adc	r25, r25
    4f54:	dc 01       	movw	r26, r24
    4f56:	a6 5f       	subi	r26, 0xF6	; 246
    4f58:	bf 4d       	sbci	r27, 0xDF	; 223
    4f5a:	81 e0       	ldi	r24, 0x01	; 1
    4f5c:	90 e0       	ldi	r25, 0x00	; 0
    4f5e:	8d 93       	st	X+, r24
    4f60:	9c 93       	st	X, r25
    4f62:	da 01       	movw	r26, r20
    4f64:	8d 93       	st	X+, r24
    4f66:	9c 93       	st	X, r25
    4f68:	0c 94 f6 14 	jmp	0x29ec	; 0x29ec <fetch+0x245e>
    4f6c:	90 e0       	ldi	r25, 0x00	; 0
    4f6e:	0c 94 8e 17 	jmp	0x2f1c	; 0x2f1c <fetch+0x298e>
    4f72:	40 81       	ld	r20, Z
    4f74:	bc 01       	movw	r22, r24
    4f76:	63 5f       	subi	r22, 0xF3	; 243
    4f78:	7f 4b       	sbci	r23, 0xBF	; 191
    4f7a:	69 83       	std	Y+1, r22	; 0x01
    4f7c:	7a 83       	std	Y+2, r23	; 0x02
    4f7e:	db 01       	movw	r26, r22
    4f80:	5c 91       	ld	r21, X
    4f82:	50 83       	st	Z, r21
    4f84:	4c 93       	st	X, r20
    4f86:	88 0f       	add	r24, r24
    4f88:	99 1f       	adc	r25, r25
    4f8a:	dc 01       	movw	r26, r24
    4f8c:	a6 5f       	subi	r26, 0xF6	; 246
    4f8e:	bf 4d       	sbci	r27, 0xDF	; 223
    4f90:	81 e0       	ldi	r24, 0x01	; 1
    4f92:	90 e0       	ldi	r25, 0x00	; 0
    4f94:	8d 93       	st	X+, r24
    4f96:	9c 93       	st	X, r25
    4f98:	d9 01       	movw	r26, r18
    4f9a:	8d 93       	st	X+, r24
    4f9c:	9c 93       	st	X, r25
    4f9e:	0c 94 5b 15 	jmp	0x2ab6	; 0x2ab6 <fetch+0x2528>
    4fa2:	80 e0       	ldi	r24, 0x00	; 0
    4fa4:	0c 94 04 18 	jmp	0x3008	; 0x3008 <fetch+0x2a7a>
    4fa8:	50 e0       	ldi	r21, 0x00	; 0
    4faa:	0c 94 e8 17 	jmp	0x2fd0	; 0x2fd0 <fetch+0x2a42>
    4fae:	80 e0       	ldi	r24, 0x00	; 0
    4fb0:	0c 94 6a 17 	jmp	0x2ed4	; 0x2ed4 <fetch+0x2946>
    4fb4:	80 91 2f 50 	lds	r24, 0x502F	; 0x80502f <ram+0x1b>
    4fb8:	8f 5f       	subi	r24, 0xFF	; 255
    4fba:	80 93 2f 50 	sts	0x502F, r24	; 0x80502f <ram+0x1b>
    4fbe:	10 92 2e 50 	sts	0x502E, r1	; 0x80502e <ram+0x1a>
    4fc2:	44 ce       	rjmp	.-888    	; 0x4c4c <fetch+0x46be>
    4fc4:	80 91 2f 50 	lds	r24, 0x502F	; 0x80502f <ram+0x1b>
    4fc8:	81 50       	subi	r24, 0x01	; 1
    4fca:	80 93 2f 50 	sts	0x502F, r24	; 0x80502f <ram+0x1b>
    4fce:	8f ef       	ldi	r24, 0xFF	; 255
    4fd0:	80 93 2e 50 	sts	0x502E, r24	; 0x80502e <ram+0x1a>
    4fd4:	93 ce       	rjmp	.-730    	; 0x4cfc <fetch+0x476e>

00004fd6 <execProgram>:
    4fd6:	10 92 04 20 	sts	0x2004, r1	; 0x802004 <stop_fetch>
    4fda:	10 92 05 20 	sts	0x2005, r1	; 0x802005 <stop_fetch+0x1>
    4fde:	06 c0       	rjmp	.+12     	; 0x4fec <execProgram+0x16>
    4fe0:	80 91 04 20 	lds	r24, 0x2004	; 0x802004 <stop_fetch>
    4fe4:	90 91 05 20 	lds	r25, 0x2005	; 0x802005 <stop_fetch+0x1>
    4fe8:	89 2b       	or	r24, r25
    4fea:	31 f4       	brne	.+12     	; 0x4ff8 <execProgram+0x22>
    4fec:	0e 94 c7 02 	call	0x58e	; 0x58e <fetch>
    4ff0:	67 2b       	or	r22, r23
    4ff2:	68 2b       	or	r22, r24
    4ff4:	69 2b       	or	r22, r25
    4ff6:	a1 f7       	brne	.-24     	; 0x4fe0 <execProgram+0xa>
    4ff8:	08 95       	ret

00004ffa <main>:
uint16_t totalFetches = 0;

int main()
{

	totalinstructions = totalcycles = 0;
    4ffa:	10 92 14 93 	sts	0x9314, r1	; 0x809314 <totalcycles>
    4ffe:	10 92 15 93 	sts	0x9315, r1	; 0x809315 <totalcycles+0x1>
    5002:	10 92 16 93 	sts	0x9316, r1	; 0x809316 <totalcycles+0x2>
    5006:	10 92 17 93 	sts	0x9317, r1	; 0x809317 <totalcycles+0x3>
    500a:	10 92 06 20 	sts	0x2006, r1	; 0x802006 <totalinstructions>
    500e:	10 92 07 20 	sts	0x2007, r1	; 0x802007 <totalinstructions+0x1>
    5012:	10 92 08 20 	sts	0x2008, r1	; 0x802008 <totalinstructions+0x2>
    5016:	10 92 09 20 	sts	0x2009, r1	; 0x802009 <totalinstructions+0x3>
	// loadDefaultProgram();

	   

	 
	ram[16] = 1;
    501a:	81 e0       	ldi	r24, 0x01	; 1
    501c:	80 93 24 50 	sts	0x5024, r24	; 0x805024 <ram+0x10>
	ram[17] = 2;
    5020:	82 e0       	ldi	r24, 0x02	; 2
    5022:	80 93 25 50 	sts	0x5025, r24	; 0x805025 <ram+0x11>
	ram[18] = 3;
    5026:	83 e0       	ldi	r24, 0x03	; 3
    5028:	80 93 26 50 	sts	0x5026, r24	; 0x805026 <ram+0x12>
	ram[19] = 4;
    502c:	84 e0       	ldi	r24, 0x04	; 4
    502e:	80 93 27 50 	sts	0x5027, r24	; 0x805027 <ram+0x13>
	ram[20] = 5;
    5032:	85 e0       	ldi	r24, 0x05	; 5
    5034:	80 93 28 50 	sts	0x5028, r24	; 0x805028 <ram+0x14>
	ram[21] = 6;
    5038:	86 e0       	ldi	r24, 0x06	; 6
    503a:	80 93 29 50 	sts	0x5029, r24	; 0x805029 <ram+0x15>
	ram[22] = 7;
    503e:	87 e0       	ldi	r24, 0x07	; 7
    5040:	80 93 2a 50 	sts	0x502A, r24	; 0x80502a <ram+0x16>
	ram[23] = 8;
    5044:	88 e0       	ldi	r24, 0x08	; 8
    5046:	80 93 2b 50 	sts	0x502B, r24	; 0x80502b <ram+0x17>
	ram[24] = 9;
    504a:	89 e0       	ldi	r24, 0x09	; 9
    504c:	80 93 2c 50 	sts	0x502C, r24	; 0x80502c <ram+0x18>
	ram[25] = 10;
    5050:	8a e0       	ldi	r24, 0x0A	; 10
    5052:	80 93 2d 50 	sts	0x502D, r24	; 0x80502d <ram+0x19>
	ram[26] = 11;
    5056:	8b e0       	ldi	r24, 0x0B	; 11
    5058:	80 93 2e 50 	sts	0x502E, r24	; 0x80502e <ram+0x1a>
	ram[27] = 12;
    505c:	8c e0       	ldi	r24, 0x0C	; 12
    505e:	80 93 2f 50 	sts	0x502F, r24	; 0x80502f <ram+0x1b>
	ram[28] = 0x00;
    5062:	10 92 30 50 	sts	0x5030, r1	; 0x805030 <ram+0x1c>
	ram[29] = 0x40;
    5066:	80 e4       	ldi	r24, 0x40	; 64
    5068:	80 93 31 50 	sts	0x5031, r24	; 0x805031 <ram+0x1d>
	ram[30] = 15;
    506c:	9f e0       	ldi	r25, 0x0F	; 15
    506e:	90 93 32 50 	sts	0x5032, r25	; 0x805032 <ram+0x1e>
	ram[31] = 16;
    5072:	90 e1       	ldi	r25, 0x10	; 16
    5074:	90 93 33 50 	sts	0x5033, r25	; 0x805033 <ram+0x1f>
	
	
	ram[SPH_ADDRESS] = 0x40;
    5078:	80 93 72 50 	sts	0x5072, r24	; 0x805072 <ram+0x5e>
	ram[SPL_ADDRESS] = 0x00;
    507c:	10 92 71 50 	sts	0x5071, r1	; 0x805071 <ram+0x5d>
void read_flash_code(uint8_t *buffer)
{
	//THE +8 is used here to skip the beginnig of the code.hack. 
	
	//memcpy_PF(buffer, FLASH_ADDRESS+12, BUFFER_SIZE);
	memcpy_PF(buffer, FLASH_ADDRESS, BUFFER_SIZE);
    5080:	20 e0       	ldi	r18, 0x00	; 0
    5082:	34 e0       	ldi	r19, 0x04	; 4
    5084:	44 e5       	ldi	r20, 0x54	; 84
    5086:	55 e5       	ldi	r21, 0x55	; 85
    5088:	61 e0       	ldi	r22, 0x01	; 1
    508a:	70 e0       	ldi	r23, 0x00	; 0
    508c:	8d e0       	ldi	r24, 0x0D	; 13
    508e:	90 e4       	ldi	r25, 0x40	; 64
    5090:	0e 94 a3 02 	call	0x546	; 0x546 <memcpy_PF>
	

   #endif 
  
	read_flash_code(memory);
	engineInit();
    5094:	0e 94 ad 02 	call	0x55a	; 0x55a <engineInit>
	execProgram();
    5098:	0e 94 eb 27 	call	0x4fd6	; 0x4fd6 <execProgram>
    509c:	ff cf       	rjmp	.-2      	; 0x509c <main+0xa2>

0000509e <__tablejump2__>:
    509e:	ee 0f       	add	r30, r30
    50a0:	ff 1f       	adc	r31, r31
    50a2:	88 1f       	adc	r24, r24
    50a4:	8b bf       	out	0x3b, r24	; 59
    50a6:	07 90       	elpm	r0, Z+
    50a8:	f6 91       	elpm	r31, Z
    50aa:	e0 2d       	mov	r30, r0
    50ac:	19 94       	eijmp

000050ae <abort>:
    50ae:	81 e0       	ldi	r24, 0x01	; 1
    50b0:	90 e0       	ldi	r25, 0x00	; 0
    50b2:	f8 94       	cli
    50b4:	0c 94 5c 28 	jmp	0x50b8	; 0x50b8 <_exit>

000050b8 <_exit>:
    50b8:	f8 94       	cli

000050ba <__stop_program>:
    50ba:	ff cf       	rjmp	.-2      	; 0x50ba <__stop_program>
